SF:/home/runner/work/matrix/matrix/Lorenzo/src/add_sub_scale.rs
FN:122,_RNvXs5_NtCs7uYp9cqXM1e_7Lorenzo13add_sub_scaleINtNtB7_6my_mat6MatrixdENtNtNtCs1TsYZUjtjaA_4core3ops5arith3Add3addB7_
FN:140,_RNvXs6_NtCs7uYp9cqXM1e_7Lorenzo13add_sub_scaleINtNtB7_6my_mat6MatrixdENtNtNtCs1TsYZUjtjaA_4core3ops5arith9AddAssign10add_assignB7_
FN:160,_RNvXs7_NtCs7uYp9cqXM1e_7Lorenzo13add_sub_scaleINtNtB7_6my_mat6MatrixdENtNtNtCs1TsYZUjtjaA_4core3ops5arith3Sub3subB7_
FN:178,_RNvXs8_NtCs7uYp9cqXM1e_7Lorenzo13add_sub_scaleINtNtB7_6my_mat6MatrixdENtNtNtCs1TsYZUjtjaA_4core3ops5arith9SubAssign10sub_assignB7_
FN:198,_RNvXs9_NtCs7uYp9cqXM1e_7Lorenzo13add_sub_scaleINtNtB7_6my_mat6MatrixdEINtB5_5ScaledE5scaleB7_
FN:276,_RNvNtNtCs7uYp9cqXM1e_7Lorenzo13add_sub_scale5testss_10matrix_add
FN:335,_RNvNtNtCs7uYp9cqXM1e_7Lorenzo13add_sub_scale5testss_10matrix_mul
FN:300,_RNvNtNtCs7uYp9cqXM1e_7Lorenzo13add_sub_scale5testss_10matrix_sub
FN:213,_RNvNtNtCs7uYp9cqXM1e_7Lorenzo13add_sub_scale5testss_10vector_add
FN:252,_RNvNtNtCs7uYp9cqXM1e_7Lorenzo13add_sub_scale5testss_10vector_mul
FN:229,_RNvNtNtCs7uYp9cqXM1e_7Lorenzo13add_sub_scale5testss_10vector_sub
FN:266,_RNvNtNtCs7uYp9cqXM1e_7Lorenzo13add_sub_scale5testss_11vector_iter
FN:324,_RNvNtNtCs7uYp9cqXM1e_7Lorenzo13add_sub_scale5testss_12matrix_scale
FN:245,_RNvNtNtCs7uYp9cqXM1e_7Lorenzo13add_sub_scale5testss_12vector_scale
FN:288,_RNvNtNtCs7uYp9cqXM1e_7Lorenzo13add_sub_scale5testss_17matrix_add_assign
FN:346,_RNvNtNtCs7uYp9cqXM1e_7Lorenzo13add_sub_scale5testss_17matrix_mul_assign
FN:312,_RNvNtNtCs7uYp9cqXM1e_7Lorenzo13add_sub_scale5testss_17matrix_sub_assign
FN:221,_RNvNtNtCs7uYp9cqXM1e_7Lorenzo13add_sub_scale5testss_17vector_add_assign
FN:259,_RNvNtNtCs7uYp9cqXM1e_7Lorenzo13add_sub_scale5testss_17vector_mul_assign
FN:237,_RNvNtNtCs7uYp9cqXM1e_7Lorenzo13add_sub_scale5testss_17vector_sub_assign
FN:358,_RNvNtNtCs7uYp9cqXM1e_7Lorenzo13add_sub_scale5testss_34matrix_add_mismatched_shape_panics
FN:374,_RNvNtNtCs7uYp9cqXM1e_7Lorenzo13add_sub_scale5testss_34matrix_sub_mismatched_shape_panics
FN:366,_RNvNtNtCs7uYp9cqXM1e_7Lorenzo13add_sub_scale5testss_41matrix_add_assign_mismatched_shape_panics
FN:382,_RNvNtNtCs7uYp9cqXM1e_7Lorenzo13add_sub_scale5testss_41matrix_sub_assign_mismatched_shape_panics
FN:130,_RNCNvXs5_NtCs7uYp9cqXM1e_7Lorenzo13add_sub_scaleINtNtB9_6my_mat6MatrixdENtNtNtCs1TsYZUjtjaA_4core3ops5arith3Add3add0B9_
FN:148,_RNCNvXs6_NtCs7uYp9cqXM1e_7Lorenzo13add_sub_scaleINtNtB9_6my_mat6MatrixdENtNtNtCs1TsYZUjtjaA_4core3ops5arith9AddAssign10add_assign0B9_
FN:168,_RNCNvXs7_NtCs7uYp9cqXM1e_7Lorenzo13add_sub_scaleINtNtB9_6my_mat6MatrixdENtNtNtCs1TsYZUjtjaA_4core3ops5arith3Sub3sub0B9_
FN:186,_RNCNvXs8_NtCs7uYp9cqXM1e_7Lorenzo13add_sub_scaleINtNtB9_6my_mat6MatrixdENtNtNtCs1TsYZUjtjaA_4core3ops5arith9SubAssign10sub_assign0B9_
FN:16,_RNvXNtCs7uYp9cqXM1e_7Lorenzo13add_sub_scaleINtNtB4_7my_vect6VectordENtNtNtCs1TsYZUjtjaA_4core3ops5arith3Add3addB4_
FN:16,_RNvXNtCs7uYp9cqXM1e_7Lorenzo13add_sub_scaleINtNtB4_7my_vect6VectorfENtNtNtCs1TsYZUjtjaA_4core3ops5arith3Add3addB4_
FN:52,_RNvXs0_NtCs7uYp9cqXM1e_7Lorenzo13add_sub_scaleINtNtB7_7my_vect6VectordEINtB5_5ScaledE5scaleB7_
FN:66,_RNvXs1_NtCs7uYp9cqXM1e_7Lorenzo13add_sub_scaleINtNtB7_7my_vect6VectordENtNtNtCs1TsYZUjtjaA_4core3ops5arith9AddAssign10add_assignB7_
FN:80,_RNvXs2_NtCs7uYp9cqXM1e_7Lorenzo13add_sub_scaleINtNtB7_7my_vect6VectordENtNtNtCs1TsYZUjtjaA_4core3ops5arith9SubAssign10sub_assignB7_
FN:96,_RNvXs3_NtCs7uYp9cqXM1e_7Lorenzo13add_sub_scaleINtNtB7_7my_vect6VectordEINtNtNtCs1TsYZUjtjaA_4core3ops5arith3MuldE3mulB7_
FN:96,_RNvXs3_NtCs7uYp9cqXM1e_7Lorenzo13add_sub_scaleINtNtB7_7my_vect6VectorfEINtNtNtCs1TsYZUjtjaA_4core3ops5arith3MulfE3mulB7_
FN:109,_RNvXs4_NtCs7uYp9cqXM1e_7Lorenzo13add_sub_scaleINtNtB7_7my_vect6VectordEINtNtNtCs1TsYZUjtjaA_4core3ops5arith9MulAssigndE10mul_assignB7_
FN:34,_RNvXs_NtCs7uYp9cqXM1e_7Lorenzo13add_sub_scaleINtNtB6_7my_vect6VectordENtNtNtCs1TsYZUjtjaA_4core3ops5arith3Sub3subB6_
FNDA:2,_RNvXs5_NtCs7uYp9cqXM1e_7Lorenzo13add_sub_scaleINtNtB7_6my_mat6MatrixdENtNtNtCs1TsYZUjtjaA_4core3ops5arith3Add3addB7_
FNDA:3,_RNvXs6_NtCs7uYp9cqXM1e_7Lorenzo13add_sub_scaleINtNtB7_6my_mat6MatrixdENtNtNtCs1TsYZUjtjaA_4core3ops5arith9AddAssign10add_assignB7_
FNDA:2,_RNvXs7_NtCs7uYp9cqXM1e_7Lorenzo13add_sub_scaleINtNtB7_6my_mat6MatrixdENtNtNtCs1TsYZUjtjaA_4core3ops5arith3Sub3subB7_
FNDA:3,_RNvXs8_NtCs7uYp9cqXM1e_7Lorenzo13add_sub_scaleINtNtB7_6my_mat6MatrixdENtNtNtCs1TsYZUjtjaA_4core3ops5arith9SubAssign10sub_assignB7_
FNDA:1,_RNvXs9_NtCs7uYp9cqXM1e_7Lorenzo13add_sub_scaleINtNtB7_6my_mat6MatrixdEINtB5_5ScaledE5scaleB7_
FNDA:1,_RNvNtNtCs7uYp9cqXM1e_7Lorenzo13add_sub_scale5testss_10matrix_add
FNDA:1,_RNvNtNtCs7uYp9cqXM1e_7Lorenzo13add_sub_scale5testss_10matrix_mul
FNDA:1,_RNvNtNtCs7uYp9cqXM1e_7Lorenzo13add_sub_scale5testss_10matrix_sub
FNDA:1,_RNvNtNtCs7uYp9cqXM1e_7Lorenzo13add_sub_scale5testss_10vector_add
FNDA:1,_RNvNtNtCs7uYp9cqXM1e_7Lorenzo13add_sub_scale5testss_10vector_mul
FNDA:1,_RNvNtNtCs7uYp9cqXM1e_7Lorenzo13add_sub_scale5testss_10vector_sub
FNDA:1,_RNvNtNtCs7uYp9cqXM1e_7Lorenzo13add_sub_scale5testss_11vector_iter
FNDA:1,_RNvNtNtCs7uYp9cqXM1e_7Lorenzo13add_sub_scale5testss_12matrix_scale
FNDA:1,_RNvNtNtCs7uYp9cqXM1e_7Lorenzo13add_sub_scale5testss_12vector_scale
FNDA:1,_RNvNtNtCs7uYp9cqXM1e_7Lorenzo13add_sub_scale5testss_17matrix_add_assign
FNDA:1,_RNvNtNtCs7uYp9cqXM1e_7Lorenzo13add_sub_scale5testss_17matrix_mul_assign
FNDA:1,_RNvNtNtCs7uYp9cqXM1e_7Lorenzo13add_sub_scale5testss_17matrix_sub_assign
FNDA:1,_RNvNtNtCs7uYp9cqXM1e_7Lorenzo13add_sub_scale5testss_17vector_add_assign
FNDA:1,_RNvNtNtCs7uYp9cqXM1e_7Lorenzo13add_sub_scale5testss_17vector_mul_assign
FNDA:1,_RNvNtNtCs7uYp9cqXM1e_7Lorenzo13add_sub_scale5testss_17vector_sub_assign
FNDA:1,_RNvNtNtCs7uYp9cqXM1e_7Lorenzo13add_sub_scale5testss_34matrix_add_mismatched_shape_panics
FNDA:1,_RNvNtNtCs7uYp9cqXM1e_7Lorenzo13add_sub_scale5testss_34matrix_sub_mismatched_shape_panics
FNDA:1,_RNvNtNtCs7uYp9cqXM1e_7Lorenzo13add_sub_scale5testss_41matrix_add_assign_mismatched_shape_panics
FNDA:1,_RNvNtNtCs7uYp9cqXM1e_7Lorenzo13add_sub_scale5testss_41matrix_sub_assign_mismatched_shape_panics
FNDA:4,_RNCNvXs5_NtCs7uYp9cqXM1e_7Lorenzo13add_sub_scaleINtNtB9_6my_mat6MatrixdENtNtNtCs1TsYZUjtjaA_4core3ops5arith3Add3add0B9_
FNDA:8,_RNCNvXs6_NtCs7uYp9cqXM1e_7Lorenzo13add_sub_scaleINtNtB9_6my_mat6MatrixdENtNtNtCs1TsYZUjtjaA_4core3ops5arith9AddAssign10add_assign0B9_
FNDA:4,_RNCNvXs7_NtCs7uYp9cqXM1e_7Lorenzo13add_sub_scaleINtNtB9_6my_mat6MatrixdENtNtNtCs1TsYZUjtjaA_4core3ops5arith3Sub3sub0B9_
FNDA:8,_RNCNvXs8_NtCs7uYp9cqXM1e_7Lorenzo13add_sub_scaleINtNtB9_6my_mat6MatrixdENtNtNtCs1TsYZUjtjaA_4core3ops5arith9SubAssign10sub_assign0B9_
FNDA:1,_RNvXNtCs7uYp9cqXM1e_7Lorenzo13add_sub_scaleINtNtB4_7my_vect6VectordENtNtNtCs1TsYZUjtjaA_4core3ops5arith3Add3addB4_
FNDA:5,_RNvXNtCs7uYp9cqXM1e_7Lorenzo13add_sub_scaleINtNtB4_7my_vect6VectorfENtNtNtCs1TsYZUjtjaA_4core3ops5arith3Add3addB4_
FNDA:1,_RNvXs0_NtCs7uYp9cqXM1e_7Lorenzo13add_sub_scaleINtNtB7_7my_vect6VectordEINtB5_5ScaledE5scaleB7_
FNDA:2,_RNvXs1_NtCs7uYp9cqXM1e_7Lorenzo13add_sub_scaleINtNtB7_7my_vect6VectordENtNtNtCs1TsYZUjtjaA_4core3ops5arith9AddAssign10add_assignB7_
FNDA:2,_RNvXs2_NtCs7uYp9cqXM1e_7Lorenzo13add_sub_scaleINtNtB7_7my_vect6VectordENtNtNtCs1TsYZUjtjaA_4core3ops5arith9SubAssign10sub_assignB7_
FNDA:1,_RNvXs3_NtCs7uYp9cqXM1e_7Lorenzo13add_sub_scaleINtNtB7_7my_vect6VectordEINtNtNtCs1TsYZUjtjaA_4core3ops5arith3MuldE3mulB7_
FNDA:10,_RNvXs3_NtCs7uYp9cqXM1e_7Lorenzo13add_sub_scaleINtNtB7_7my_vect6VectorfEINtNtNtCs1TsYZUjtjaA_4core3ops5arith3MulfE3mulB7_
FNDA:2,_RNvXs4_NtCs7uYp9cqXM1e_7Lorenzo13add_sub_scaleINtNtB7_7my_vect6VectordEINtNtNtCs1TsYZUjtjaA_4core3ops5arith9MulAssigndE10mul_assignB7_
FNDA:1,_RNvXs_NtCs7uYp9cqXM1e_7Lorenzo13add_sub_scaleINtNtB6_7my_vect6VectordENtNtNtCs1TsYZUjtjaA_4core3ops5arith3Sub3subB6_
FNF:35
FNH:35
DA:16,6
DA:17,6
DA:18,6
DA:19,15
DA:20,15
DA:21,15
DA:22,15
DA:23,15
DA:24,6
DA:25,6
DA:34,1
DA:35,1
DA:36,1
DA:37,2
DA:38,2
DA:39,2
DA:40,2
DA:41,2
DA:42,1
DA:43,1
DA:52,1
DA:53,1
DA:54,1
DA:55,2
DA:56,2
DA:57,2
DA:58,1
DA:59,1
DA:66,2
DA:67,2
DA:68,2
DA:69,4
DA:70,4
DA:71,4
DA:72,4
DA:73,2
DA:80,2
DA:81,2
DA:82,2
DA:83,4
DA:84,4
DA:85,4
DA:86,4
DA:87,2
DA:96,11
DA:97,11
DA:98,28
DA:99,28
DA:100,28
DA:101,11
DA:102,11
DA:109,2
DA:110,4
DA:111,4
DA:112,4
DA:113,2
DA:122,2
DA:123,2
DA:124,1
DA:125,1
DA:126,1
DA:127,1
DA:128,1
DA:129,1
DA:130,4
DA:131,1
DA:132,1
DA:133,1
DA:140,3
DA:141,3
DA:142,1
DA:143,2
DA:144,2
DA:145,2
DA:146,2
DA:147,2
DA:148,8
DA:149,2
DA:150,2
DA:151,2
DA:160,2
DA:161,2
DA:162,1
DA:163,1
DA:164,1
DA:165,1
DA:166,1
DA:167,1
DA:168,4
DA:169,1
DA:170,1
DA:171,1
DA:178,3
DA:179,3
DA:180,1
DA:181,2
DA:182,2
DA:183,2
DA:184,2
DA:185,2
DA:186,8
DA:187,2
DA:188,2
DA:189,2
DA:198,1
DA:199,1
DA:200,1
DA:201,4
DA:202,4
DA:203,4
DA:204,1
DA:205,1
DA:213,1
DA:214,1
DA:215,1
DA:216,1
DA:217,1
DA:218,1
DA:221,1
DA:222,1
DA:223,1
DA:224,1
DA:225,1
DA:226,1
DA:229,1
DA:230,1
DA:231,1
DA:232,1
DA:233,1
DA:234,1
DA:237,1
DA:238,1
DA:239,1
DA:240,1
DA:241,1
DA:242,1
DA:245,1
DA:246,1
DA:247,1
DA:248,1
DA:249,1
DA:252,1
DA:253,1
DA:254,1
DA:255,1
DA:256,1
DA:259,1
DA:260,1
DA:261,1
DA:262,1
DA:263,1
DA:266,1
DA:267,1
DA:268,1
DA:269,1
DA:271,1
DA:272,1
DA:273,1
DA:276,1
DA:277,1
DA:278,1
DA:279,1
DA:280,1
DA:281,1
DA:282,1
DA:283,1
DA:285,1
DA:288,1
DA:289,1
DA:290,1
DA:291,1
DA:292,1
DA:293,1
DA:294,1
DA:295,1
DA:297,1
DA:300,1
DA:301,1
DA:302,1
DA:303,1
DA:304,1
DA:305,1
DA:306,1
DA:307,1
DA:309,1
DA:312,1
DA:313,1
DA:314,1
DA:315,1
DA:316,1
DA:317,1
DA:318,1
DA:319,1
DA:321,1
DA:324,1
DA:325,1
DA:326,1
DA:327,1
DA:328,1
DA:329,1
DA:330,1
DA:332,1
DA:335,1
DA:336,1
DA:337,1
DA:338,1
DA:339,1
DA:340,1
DA:341,1
DA:343,1
DA:346,1
DA:347,1
DA:348,1
DA:349,1
DA:350,1
DA:351,1
DA:352,1
DA:354,1
DA:358,1
DA:359,1
DA:360,1
DA:361,1
DA:362,1
DA:366,1
DA:367,1
DA:368,1
DA:369,1
DA:370,1
DA:374,1
DA:375,1
DA:376,1
DA:377,1
DA:378,1
DA:382,1
DA:383,1
DA:384,1
DA:385,1
DA:386,1
BRDA:123,0,0,1
BRDA:123,0,1,1
BRDA:141,0,0,1
BRDA:141,0,1,2
BRDA:161,0,0,1
BRDA:161,0,1,1
BRDA:179,0,0,1
BRDA:179,0,1,2
BRF:8
BRH:8
LF:242
LH:242
end_of_record
SF:/home/runner/work/matrix/matrix/Lorenzo/src/cosine.rs
FN:5,_RINvNtCs7uYp9cqXM1e_7Lorenzo6cosine9angle_cosINtCsjH9OezVP8vX_11num_complex7ComplexfEEB4_
FN:5,_RINvNtCs7uYp9cqXM1e_7Lorenzo6cosine9angle_cosdEB4_
FN:26,_RNvNtNtCs7uYp9cqXM1e_7Lorenzo6cosine5tests9approx_eq
FN:55,_RNvNtNtCs7uYp9cqXM1e_7Lorenzo6cosine5testss_22test_angle_cos_complex
FN:47,_RNvNtNtCs7uYp9cqXM1e_7Lorenzo6cosine5testss_23test_angle_cos_opposite
FN:39,_RNvNtNtCs7uYp9cqXM1e_7Lorenzo6cosine5testss_23test_angle_cos_parallel
FN:31,_RNvNtNtCs7uYp9cqXM1e_7Lorenzo6cosine5testss_28test_angle_cos_perpendicular
FN:63,_RNvNtNtCs7uYp9cqXM1e_7Lorenzo6cosine5testss_39test_angle_cos_zero_vector_returns_zero
FNDA:1,_RINvNtCs7uYp9cqXM1e_7Lorenzo6cosine9angle_cosINtCsjH9OezVP8vX_11num_complex7ComplexfEEB4_
FNDA:4,_RINvNtCs7uYp9cqXM1e_7Lorenzo6cosine9angle_cosdEB4_
FNDA:5,_RNvNtNtCs7uYp9cqXM1e_7Lorenzo6cosine5tests9approx_eq
FNDA:1,_RNvNtNtCs7uYp9cqXM1e_7Lorenzo6cosine5testss_22test_angle_cos_complex
FNDA:1,_RNvNtNtCs7uYp9cqXM1e_7Lorenzo6cosine5testss_23test_angle_cos_opposite
FNDA:1,_RNvNtNtCs7uYp9cqXM1e_7Lorenzo6cosine5testss_23test_angle_cos_parallel
FNDA:1,_RNvNtNtCs7uYp9cqXM1e_7Lorenzo6cosine5testss_28test_angle_cos_perpendicular
FNDA:1,_RNvNtNtCs7uYp9cqXM1e_7Lorenzo6cosine5testss_39test_angle_cos_zero_vector_returns_zero
FNF:7
FNH:7
DA:5,5
DA:6,5
DA:7,5
DA:9,5
DA:10,5
DA:11,5
DA:12,1
DA:13,4
DA:14,4
DA:15,4
DA:16,5
DA:26,5
DA:27,5
DA:28,5
DA:31,1
DA:32,1
DA:33,1
DA:34,1
DA:35,1
DA:36,1
DA:39,1
DA:40,1
DA:41,1
DA:42,1
DA:43,1
DA:44,1
DA:47,1
DA:48,1
DA:49,1
DA:50,1
DA:51,1
DA:52,1
DA:55,1
DA:56,1
DA:57,1
DA:58,1
DA:59,1
DA:60,1
DA:63,1
DA:64,1
DA:65,1
DA:66,1
DA:67,1
DA:68,1
BRDA:11,0,0,1
BRDA:11,0,1,4
BRF:2
BRH:2
LF:44
LH:44
end_of_record
SF:/home/runner/work/matrix/matrix/Lorenzo/src/cross_prod.rs
FN:3,_RINvNtCs7uYp9cqXM1e_7Lorenzo10cross_prod13cross_productdEB4_
FN:3,_RINvNtCs7uYp9cqXM1e_7Lorenzo10cross_prod13cross_productlEB4_
FN:22,_RNvNtNtCs7uYp9cqXM1e_7Lorenzo10cross_prod5testss_19cross_product_basic
FN:42,_RNvNtNtCs7uYp9cqXM1e_7Lorenzo10cross_prod5testss_21cross_product_bad_dim
FN:31,_RNvNtNtCs7uYp9cqXM1e_7Lorenzo10cross_prod5testss_30cross_product_anti_commutative
FN:50,_RNvNtNtCs7uYp9cqXM1e_7Lorenzo10cross_prod5testss_36cross_product_bad_second_operand_dim
FNDA:1,_RINvNtCs7uYp9cqXM1e_7Lorenzo10cross_prod13cross_productdEB4_
FNDA:5,_RINvNtCs7uYp9cqXM1e_7Lorenzo10cross_prod13cross_productlEB4_
FNDA:1,_RNvNtNtCs7uYp9cqXM1e_7Lorenzo10cross_prod5testss_19cross_product_basic
FNDA:1,_RNvNtNtCs7uYp9cqXM1e_7Lorenzo10cross_prod5testss_21cross_product_bad_dim
FNDA:1,_RNvNtNtCs7uYp9cqXM1e_7Lorenzo10cross_prod5testss_30cross_product_anti_commutative
FNDA:1,_RNvNtNtCs7uYp9cqXM1e_7Lorenzo10cross_prod5testss_36cross_product_bad_second_operand_dim
FNF:5
FNH:5
DA:3,6
DA:4,6
DA:5,6
DA:7,6
DA:8,2
DA:9,4
DA:10,4
DA:11,4
DA:12,4
DA:13,4
DA:15,4
DA:22,1
DA:23,1
DA:24,1
DA:25,1
DA:27,1
DA:28,1
DA:31,1
DA:32,1
DA:33,1
DA:34,1
DA:35,1
DA:37,1
DA:38,1
DA:42,1
DA:43,1
DA:44,1
DA:45,1
DA:46,1
DA:50,1
DA:51,1
DA:52,1
DA:53,1
DA:54,1
BRDA:7,0,0,1
BRDA:7,0,1,5
BRDA:7,1,2,1
BRDA:7,1,3,4
BRF:4
BRH:4
LF:34
LH:34
end_of_record
SF:/home/runner/work/matrix/matrix/Lorenzo/src/determinant.rs
FN:17,_RNvMNtCs7uYp9cqXM1e_7Lorenzo11determinantINtNtB4_6my_mat6MatrixINtCsjH9OezVP8vX_11num_complex7ComplexdEE11determinantB4_
FN:17,_RNvMNtCs7uYp9cqXM1e_7Lorenzo11determinantINtNtB4_6my_mat6MatrixlE11determinantB4_
FN:72,_RNvNtNtCs7uYp9cqXM1e_7Lorenzo11determinant5testss_11det_2x2_int
FN:79,_RNvNtNtCs7uYp9cqXM1e_7Lorenzo11determinant5testss_11det_3x3_int
FN:87,_RNvNtNtCs7uYp9cqXM1e_7Lorenzo11determinant5testss_15det_2x2_complex
FNDA:1,_RNvMNtCs7uYp9cqXM1e_7Lorenzo11determinantINtNtB4_6my_mat6MatrixINtCsjH9OezVP8vX_11num_complex7ComplexdEE11determinantB4_
FNDA:5,_RNvMNtCs7uYp9cqXM1e_7Lorenzo11determinantINtNtB4_6my_mat6MatrixlE11determinantB4_
FNDA:1,_RNvNtNtCs7uYp9cqXM1e_7Lorenzo11determinant5testss_11det_2x2_int
FNDA:1,_RNvNtNtCs7uYp9cqXM1e_7Lorenzo11determinant5testss_11det_3x3_int
FNDA:1,_RNvNtNtCs7uYp9cqXM1e_7Lorenzo11determinant5testss_15det_2x2_complex
FNF:4
FNH:4
DA:17,6
DA:18,6
DA:19,0
DA:20,6
DA:21,6
DA:22,0
DA:23,6
DA:25,6
DA:28,6
DA:29,0
DA:30,6
DA:31,6
DA:32,0
DA:33,6
DA:34,6
DA:35,5
DA:36,5
DA:37,5
DA:38,5
DA:39,5
DA:40,1
DA:41,1
DA:42,3
DA:43,3
DA:44,3
DA:45,0
DA:46,3
DA:47,3
DA:48,6
DA:49,18
DA:50,18
DA:51,12
DA:52,12
DA:55,3
DA:57,3
DA:58,3
DA:59,3
DA:62,1
DA:63,6
DA:72,1
DA:73,1
DA:75,1
DA:76,1
DA:79,1
DA:80,1
DA:81,1
DA:83,1
DA:84,1
DA:87,1
DA:88,1
DA:89,1
DA:90,1
DA:92,1
DA:96,1
DA:97,1
DA:99,1
DA:100,1
DA:101,1
DA:102,1
BRDA:18,0,0,0
BRDA:18,0,1,6
BRDA:21,0,0,0
BRDA:21,0,1,6
BRDA:28,0,0,0
BRDA:28,0,1,6
BRDA:31,0,0,0
BRDA:31,0,1,6
BRDA:34,0,0,5
BRDA:34,0,1,1
BRDA:44,0,0,0
BRDA:44,0,1,3
BRDA:50,0,0,12
BRDA:50,0,1,6
BRDA:58,0,0,2
BRDA:58,0,1,1
BRDA:101,0,0,1
BRDA:101,0,1,0
BRDA:101,1,2,1
BRDA:101,1,3,0
BRF:20
BRH:13
LF:59
LH:54
end_of_record
SF:/home/runner/work/matrix/matrix/Lorenzo/src/dot_prod.rs
FN:123,_RNvNtNtCs7uYp9cqXM1e_7Lorenzo8dot_prod5testss_17test_dot_f32_real
FN:131,_RNvNtNtCs7uYp9cqXM1e_7Lorenzo8dot_prod5testss_20test_dot_f32_complex
FN:97,_RNvNtNtCs7uYp9cqXM1e_7Lorenzo8dot_prod5testss_20test_dot_product_f32
FN:89,_RNvNtNtCs7uYp9cqXM1e_7Lorenzo8dot_prod5testss_20test_dot_product_f64
FN:105,_RNvNtNtCs7uYp9cqXM1e_7Lorenzo8dot_prod5testss_20test_dot_product_i32
FN:113,_RNvNtNtCs7uYp9cqXM1e_7Lorenzo8dot_prod5testss_34test_dot_product_complex_hermitian
FN:141,_RNvNtNtCs7uYp9cqXM1e_7Lorenzo8dot_prod5testss_34test_dot_product_different_lengths
FN:149,_RNvNtNtCs7uYp9cqXM1e_7Lorenzo8dot_prod5testss_42test_dot_product_complex_different_lengths
FN:37,_RNvMNtCs7uYp9cqXM1e_7Lorenzo8dot_prodINtNtB4_7my_vect6VectorINtCsjH9OezVP8vX_11num_complex7ComplexfEE3dotB4_
FN:8,_RNvMs0_NtCs7uYp9cqXM1e_7Lorenzo8dot_prodINtNtB7_7my_vect6VectorfE3dot
FN:8,_RNvMs1_NtCs7uYp9cqXM1e_7Lorenzo8dot_prodINtNtB7_7my_vect6VectordE3dot
FN:8,_RNvMs2_NtCs7uYp9cqXM1e_7Lorenzo8dot_prodINtNtB7_7my_vect6VectorlE3dot
FN:57,_RNvXs6_NtCs7uYp9cqXM1e_7Lorenzo8dot_prodINtNtB7_7my_vect6VectordENtB5_6DotF327dot_f32
FN:75,_RNvXs_NtCs7uYp9cqXM1e_7Lorenzo8dot_prodINtNtB6_7my_vect6VectorINtCsjH9OezVP8vX_11num_complex7ComplexfEENtB4_6DotF327dot_f32B6_
FN:8,_RNvMs3_NtCs7uYp9cqXM1e_7Lorenzo8dot_prodINtNtB7_7my_vect6VectorxE3dot
FN:8,_RNvMs4_NtCs7uYp9cqXM1e_7Lorenzo8dot_prodINtNtB7_7my_vect6VectoriE3dot
FN:57,_RNvXs5_NtCs7uYp9cqXM1e_7Lorenzo8dot_prodINtNtB7_7my_vect6VectorfENtB5_6DotF327dot_f32
FN:57,_RNvXs7_NtCs7uYp9cqXM1e_7Lorenzo8dot_prodINtNtB7_7my_vect6VectorlENtB5_6DotF327dot_f32
FN:57,_RNvXs8_NtCs7uYp9cqXM1e_7Lorenzo8dot_prodINtNtB7_7my_vect6VectorxENtB5_6DotF327dot_f32
FN:57,_RNvXs9_NtCs7uYp9cqXM1e_7Lorenzo8dot_prodINtNtB7_7my_vect6VectoriENtB5_6DotF327dot_f32
FNDA:1,_RNvNtNtCs7uYp9cqXM1e_7Lorenzo8dot_prod5testss_17test_dot_f32_real
FNDA:1,_RNvNtNtCs7uYp9cqXM1e_7Lorenzo8dot_prod5testss_20test_dot_f32_complex
FNDA:1,_RNvNtNtCs7uYp9cqXM1e_7Lorenzo8dot_prod5testss_20test_dot_product_f32
FNDA:1,_RNvNtNtCs7uYp9cqXM1e_7Lorenzo8dot_prod5testss_20test_dot_product_f64
FNDA:1,_RNvNtNtCs7uYp9cqXM1e_7Lorenzo8dot_prod5testss_20test_dot_product_i32
FNDA:1,_RNvNtNtCs7uYp9cqXM1e_7Lorenzo8dot_prod5testss_34test_dot_product_complex_hermitian
FNDA:1,_RNvNtNtCs7uYp9cqXM1e_7Lorenzo8dot_prod5testss_34test_dot_product_different_lengths
FNDA:1,_RNvNtNtCs7uYp9cqXM1e_7Lorenzo8dot_prod5testss_42test_dot_product_complex_different_lengths
FNDA:5,_RNvMNtCs7uYp9cqXM1e_7Lorenzo8dot_prodINtNtB4_7my_vect6VectorINtCsjH9OezVP8vX_11num_complex7ComplexfEE3dotB4_
FNDA:1,_RNvMs0_NtCs7uYp9cqXM1e_7Lorenzo8dot_prodINtNtB7_7my_vect6VectorfE3dot
FNDA:9,_RNvMs1_NtCs7uYp9cqXM1e_7Lorenzo8dot_prodINtNtB7_7my_vect6VectordE3dot
FNDA:1,_RNvMs2_NtCs7uYp9cqXM1e_7Lorenzo8dot_prodINtNtB7_7my_vect6VectorlE3dot
FNDA:5,_RNvXs6_NtCs7uYp9cqXM1e_7Lorenzo8dot_prodINtNtB7_7my_vect6VectordENtB5_6DotF327dot_f32
FNDA:2,_RNvXs_NtCs7uYp9cqXM1e_7Lorenzo8dot_prodINtNtB6_7my_vect6VectorINtCsjH9OezVP8vX_11num_complex7ComplexfEENtB4_6DotF327dot_f32B6_
FNDA:0,_RNvMs3_NtCs7uYp9cqXM1e_7Lorenzo8dot_prodINtNtB7_7my_vect6VectorxE3dot
FNDA:0,_RNvMs4_NtCs7uYp9cqXM1e_7Lorenzo8dot_prodINtNtB7_7my_vect6VectoriE3dot
FNDA:0,_RNvXs5_NtCs7uYp9cqXM1e_7Lorenzo8dot_prodINtNtB7_7my_vect6VectorfENtB5_6DotF327dot_f32
FNDA:0,_RNvXs7_NtCs7uYp9cqXM1e_7Lorenzo8dot_prodINtNtB7_7my_vect6VectorlENtB5_6DotF327dot_f32
FNDA:0,_RNvXs8_NtCs7uYp9cqXM1e_7Lorenzo8dot_prodINtNtB7_7my_vect6VectorxENtB5_6DotF327dot_f32
FNDA:0,_RNvXs9_NtCs7uYp9cqXM1e_7Lorenzo8dot_prodINtNtB7_7my_vect6VectoriENtB5_6DotF327dot_f32
FNF:12
FNH:12
DA:8,11
DA:9,11
DA:10,11
DA:12,11
DA:13,1
DA:14,10
DA:15,10
DA:16,24
DA:17,24
DA:18,24
DA:19,24
DA:20,10
DA:21,10
DA:37,5
DA:38,5
DA:39,1
DA:40,4
DA:41,4
DA:42,5
DA:43,5
DA:44,5
DA:45,5
DA:46,4
DA:47,4
DA:57,5
DA:58,5
DA:59,5
DA:60,5
DA:75,2
DA:76,2
DA:77,2
DA:78,2
DA:79,2
DA:89,1
DA:90,1
DA:91,1
DA:92,1
DA:93,1
DA:94,1
DA:97,1
DA:98,1
DA:99,1
DA:100,1
DA:101,1
DA:102,1
DA:105,1
DA:106,1
DA:107,1
DA:108,1
DA:109,1
DA:110,1
DA:113,1
DA:115,1
DA:116,1
DA:117,1
DA:119,1
DA:120,1
DA:123,1
DA:124,1
DA:125,1
DA:126,1
DA:127,1
DA:128,1
DA:131,1
DA:132,1
DA:133,1
DA:134,1
DA:136,1
DA:137,1
DA:141,1
DA:142,1
DA:143,1
DA:144,1
DA:145,1
DA:149,1
DA:150,1
DA:151,1
DA:152,1
DA:153,1
DA:155,1
DA:156,1
BRDA:38,0,0,1
BRDA:38,0,1,4
BRF:2
BRH:2
LF:81
LH:81
end_of_record
SF:/home/runner/work/matrix/matrix/Lorenzo/src/inverse.rs
FN:22,_RNvMNtCs7uYp9cqXM1e_7Lorenzo7inverseINtNtB4_6my_mat6MatrixINtCsjH9OezVP8vX_11num_complex7ComplexdEE7inverseB4_
FN:22,_RNvMNtCs7uYp9cqXM1e_7Lorenzo7inverseINtNtB4_6my_mat6MatrixdE7inverseB4_
FN:119,_RNvNtNtCs7uYp9cqXM1e_7Lorenzo7inverse5testss_17inverse_2x2_float
FN:142,_RNvNtNtCs7uYp9cqXM1e_7Lorenzo7inverse5testss_17inverse_3x3_float
FN:198,_RNvNtNtCs7uYp9cqXM1e_7Lorenzo7inverse5testss_19inverse_2x2_complex
FN:221,_RNvNtNtCs7uYp9cqXM1e_7Lorenzo7inverse5testss_25inverse_non_square_panics
FN:166,_RNvNtNtCs7uYp9cqXM1e_7Lorenzo7inverse5testss_28inverse_identity_is_identity
FN:187,_RNvNtNtCs7uYp9cqXM1e_7Lorenzo7inverse5testss_29inverse_singular_returns_none
FNDA:1,_RNvMNtCs7uYp9cqXM1e_7Lorenzo7inverseINtNtB4_6my_mat6MatrixINtCsjH9OezVP8vX_11num_complex7ComplexdEE7inverseB4_
FNDA:5,_RNvMNtCs7uYp9cqXM1e_7Lorenzo7inverseINtNtB4_6my_mat6MatrixdE7inverseB4_
FNDA:1,_RNvNtNtCs7uYp9cqXM1e_7Lorenzo7inverse5testss_17inverse_2x2_float
FNDA:1,_RNvNtNtCs7uYp9cqXM1e_7Lorenzo7inverse5testss_17inverse_3x3_float
FNDA:1,_RNvNtNtCs7uYp9cqXM1e_7Lorenzo7inverse5testss_19inverse_2x2_complex
FNDA:1,_RNvNtNtCs7uYp9cqXM1e_7Lorenzo7inverse5testss_25inverse_non_square_panics
FNDA:1,_RNvNtNtCs7uYp9cqXM1e_7Lorenzo7inverse5testss_28inverse_identity_is_identity
FNDA:1,_RNvNtNtCs7uYp9cqXM1e_7Lorenzo7inverse5testss_29inverse_singular_returns_none
FNF:7
FNH:7
DA:22,6
DA:23,6
DA:24,0
DA:25,6
DA:26,6
DA:27,1
DA:28,5
DA:30,5
DA:33,5
DA:34,12
DA:35,30
DA:36,30
DA:37,30
DA:39,30
DA:40,30
DA:41,12
DA:42,18
DA:43,18
DA:44,18
DA:47,5
DA:50,12
DA:52,12
DA:53,12
DA:54,12
DA:55,12
DA:56,11
DA:57,11
DA:58,11
DA:59,1
DA:63,12
DA:64,1
DA:65,11
DA:68,11
DA:69,0
DA:70,0
DA:71,0
DA:72,0
DA:73,0
DA:74,0
DA:75,0
DA:76,11
DA:79,11
DA:80,56
DA:81,56
DA:82,56
DA:83,56
DA:84,56
DA:87,28
DA:88,28
DA:89,17
DA:90,92
DA:91,92
DA:92,92
DA:93,92
DA:94,92
DA:95,92
DA:96,92
DA:97,11
DA:102,4
DA:103,10
DA:104,26
DA:105,26
DA:106,26
DA:109,4
DA:110,5
DA:119,1
DA:120,1
DA:121,1
DA:124,1
DA:125,1
DA:126,1
DA:128,1
DA:131,2
DA:132,4
DA:133,4
DA:134,4
DA:135,4
DA:136,4
DA:139,1
DA:142,1
DA:143,1
DA:144,1
DA:145,1
DA:146,1
DA:148,1
DA:149,1
DA:152,1
DA:155,3
DA:156,9
DA:157,9
DA:158,9
DA:159,9
DA:160,9
DA:163,1
DA:166,1
DA:167,1
DA:168,1
DA:169,1
DA:170,1
DA:172,1
DA:173,1
DA:176,3
DA:177,9
DA:178,9
DA:179,9
DA:180,9
DA:181,9
DA:184,1
DA:187,1
DA:189,1
DA:190,1
DA:191,1
DA:193,1
DA:194,1
DA:195,1
DA:198,1
DA:199,1
DA:200,1
DA:201,1
DA:203,1
DA:204,1
DA:207,1
DA:209,2
DA:210,4
DA:211,4
DA:212,4
DA:213,4
DA:214,4
DA:217,1
DA:221,1
DA:222,1
DA:223,1
DA:224,1
DA:226,1
DA:227,1
DA:228,1
BRDA:23,0,0,0
BRDA:23,0,1,6
BRDA:26,0,0,1
BRDA:26,0,1,5
BRDA:40,0,0,12
BRDA:40,0,1,18
BRDA:55,0,0,11
BRDA:55,0,1,1
BRDA:63,0,0,1
BRDA:63,0,1,11
BRDA:68,0,0,0
BRDA:68,0,1,11
BRDA:88,0,0,17
BRDA:88,0,1,11
BRDA:157,0,0,3
BRDA:157,0,1,6
BRDA:178,0,0,3
BRDA:178,0,1,6
BRDA:211,0,0,2
BRDA:211,0,1,2
BRF:20
BRH:18
LF:136
LH:128
end_of_record
SF:/home/runner/work/matrix/matrix/Lorenzo/src/linear_combo.rs
FN:3,_RINvNtCs7uYp9cqXM1e_7Lorenzo12linear_combo18linear_combinationdEB4_
FN:33,_RNvNtNtCs7uYp9cqXM1e_7Lorenzo12linear_combo5testss_29test_linear_combination_basic
FN:88,_RNvNtNtCs7uYp9cqXM1e_7Lorenzo12linear_combo5testss_37test_linear_combination_empty_vectors
FN:48,_RNvNtNtCs7uYp9cqXM1e_7Lorenzo12linear_combo5testss_37test_linear_combination_three_vectors
FN:64,_RNvNtNtCs7uYp9cqXM1e_7Lorenzo12linear_combo5testss_40test_linear_combination_zero_coefficient
FN:80,_RNvNtNtCs7uYp9cqXM1e_7Lorenzo12linear_combo5testss_42test_linear_combination_mismatched_lengths
FN:96,_RNvNtNtCs7uYp9cqXM1e_7Lorenzo12linear_combo5testss_44test_linear_combination_different_dimensions
FNDA:8,_RINvNtCs7uYp9cqXM1e_7Lorenzo12linear_combo18linear_combinationdEB4_
FNDA:1,_RNvNtNtCs7uYp9cqXM1e_7Lorenzo12linear_combo5testss_29test_linear_combination_basic
FNDA:1,_RNvNtNtCs7uYp9cqXM1e_7Lorenzo12linear_combo5testss_37test_linear_combination_empty_vectors
FNDA:1,_RNvNtNtCs7uYp9cqXM1e_7Lorenzo12linear_combo5testss_37test_linear_combination_three_vectors
FNDA:1,_RNvNtNtCs7uYp9cqXM1e_7Lorenzo12linear_combo5testss_40test_linear_combination_zero_coefficient
FNDA:1,_RNvNtNtCs7uYp9cqXM1e_7Lorenzo12linear_combo5testss_42test_linear_combination_mismatched_lengths
FNDA:1,_RNvNtNtCs7uYp9cqXM1e_7Lorenzo12linear_combo5testss_44test_linear_combination_different_dimensions
FNF:7
FNH:7
DA:3,8
DA:4,8
DA:5,8
DA:7,8
DA:8,1
DA:9,7
DA:10,7
DA:11,1
DA:12,6
DA:13,6
DA:14,6
DA:15,15
DA:16,15
DA:17,1
DA:18,14
DA:19,34
DA:20,34
DA:21,34
DA:24,5
DA:25,5
DA:33,1
DA:34,1
DA:35,1
DA:36,1
DA:38,1
DA:39,1
DA:40,1
DA:41,1
DA:42,2
DA:43,2
DA:45,1
DA:48,1
DA:49,1
DA:50,1
DA:51,1
DA:52,1
DA:54,1
DA:55,1
DA:56,1
DA:57,1
DA:58,3
DA:59,3
DA:61,1
DA:64,1
DA:65,1
DA:66,1
DA:67,1
DA:69,1
DA:70,1
DA:71,1
DA:72,1
DA:73,2
DA:74,2
DA:76,1
DA:80,1
DA:81,1
DA:82,1
DA:83,1
DA:84,1
DA:88,1
DA:89,1
DA:90,1
DA:91,1
DA:92,1
DA:96,1
DA:97,1
DA:98,1
DA:99,1
DA:101,1
DA:102,1
DA:103,1
BRDA:7,0,0,1
BRDA:7,0,1,7
BRDA:10,0,0,1
BRDA:10,0,1,6
BRDA:16,0,0,1
BRDA:16,0,1,14
BRF:6
BRH:6
LF:71
LH:71
end_of_record
SF:/home/runner/work/matrix/matrix/Lorenzo/src/linear_inter.rs
FN:40,_RNvNtNtCs7uYp9cqXM1e_7Lorenzo12linear_inter5testss_16test_lerp_at_end
FN:51,_RNvNtNtCs7uYp9cqXM1e_7Lorenzo12linear_inter5testss_17test_lerp_quarter
FN:29,_RNvNtNtCs7uYp9cqXM1e_7Lorenzo12linear_inter5testss_18test_lerp_at_start
FN:17,_RNvNtNtCs7uYp9cqXM1e_7Lorenzo12linear_inter5testss_18test_lerp_midpoint
FN:64,_RNvNtNtCs7uYp9cqXM1e_7Lorenzo12linear_inter5testss_20test_lerp_negative_t
FN:72,_RNvNtNtCs7uYp9cqXM1e_7Lorenzo12linear_inter5testss_28test_lerp_t_greater_than_one
FN:1,_RINvNtCs7uYp9cqXM1e_7Lorenzo12linear_inter4lerpINtNtB4_7my_vect6VectorfEEB4_
FNDA:1,_RNvNtNtCs7uYp9cqXM1e_7Lorenzo12linear_inter5testss_16test_lerp_at_end
FNDA:1,_RNvNtNtCs7uYp9cqXM1e_7Lorenzo12linear_inter5testss_17test_lerp_quarter
FNDA:1,_RNvNtNtCs7uYp9cqXM1e_7Lorenzo12linear_inter5testss_18test_lerp_at_start
FNDA:1,_RNvNtNtCs7uYp9cqXM1e_7Lorenzo12linear_inter5testss_18test_lerp_midpoint
FNDA:1,_RNvNtNtCs7uYp9cqXM1e_7Lorenzo12linear_inter5testss_20test_lerp_negative_t
FNDA:1,_RNvNtNtCs7uYp9cqXM1e_7Lorenzo12linear_inter5testss_28test_lerp_t_greater_than_one
FNDA:7,_RINvNtCs7uYp9cqXM1e_7Lorenzo12linear_inter4lerpINtNtB4_7my_vect6VectorfEEB4_
FNF:7
FNH:7
DA:1,7
DA:2,7
DA:3,7
DA:5,7
DA:6,2
DA:7,5
DA:8,5
DA:9,5
DA:17,1
DA:18,1
DA:19,1
DA:20,1
DA:21,1
DA:22,1
DA:23,2
DA:24,2
DA:26,1
DA:29,1
DA:30,1
DA:31,1
DA:32,1
DA:33,1
DA:34,3
DA:35,3
DA:37,1
DA:40,1
DA:41,1
DA:42,1
DA:43,1
DA:44,1
DA:45,3
DA:46,3
DA:48,1
DA:51,1
DA:52,1
DA:53,1
DA:54,1
DA:55,1
DA:56,1
DA:57,2
DA:58,2
DA:60,1
DA:64,1
DA:65,1
DA:66,1
DA:67,1
DA:68,1
DA:72,1
DA:73,1
DA:74,1
DA:75,1
DA:76,1
BRDA:5,0,0,1
BRDA:5,0,1,6
BRDA:5,1,2,1
BRDA:5,1,3,5
BRF:4
BRH:4
LF:52
LH:52
end_of_record
SF:/home/runner/work/matrix/matrix/Lorenzo/src/linear_map.rs
FN:58,_RNvMs1_NtCs7uYp9cqXM1e_7Lorenzo10linear_mapINtNtB7_6my_mat6MatrixlE10dot_vectorB7_
FN:13,_RNvXNtCs7uYp9cqXM1e_7Lorenzo10linear_mapINtNtB4_6my_mat6MatrixdEINtNtNtCs1TsYZUjtjaA_4core3ops5arith3MuldE3mulB4_
FN:44,_RNvXs0_NtCs7uYp9cqXM1e_7Lorenzo10linear_mapINtNtB7_6my_mat6MatrixdEINtNtNtCs1TsYZUjtjaA_4core3ops5arith9MulAssigndE10mul_assignB7_
FN:87,_RNvXs2_NtCs7uYp9cqXM1e_7Lorenzo10linear_mapINtNtB7_6my_mat6MatrixlENtNtNtCs1TsYZUjtjaA_4core3ops5arith3Mul3mulB7_
FN:252,_RNvXs3_NtCs7uYp9cqXM1e_7Lorenzo10linear_mapRINtNtB7_6my_mat6MatrixINtCsjH9OezVP8vX_11num_complex7ComplexdEENtNtNtCs1TsYZUjtjaA_4core3ops5arith3Mul3mulB7_
FN:252,_RNvXs3_NtCs7uYp9cqXM1e_7Lorenzo10linear_mapRINtNtB7_6my_mat6MatrixdENtNtNtCs1TsYZUjtjaA_4core3ops5arith3Mul3mulB7_
FN:252,_RNvXs3_NtCs7uYp9cqXM1e_7Lorenzo10linear_mapRINtNtB7_6my_mat6MatrixlENtNtNtCs1TsYZUjtjaA_4core3ops5arith3Mul3mulB7_
FN:266,_RNvXs4_NtCs7uYp9cqXM1e_7Lorenzo10linear_mapINtNtB7_6my_mat6MatrixlEINtNtNtCs1TsYZUjtjaA_4core3ops5arith3MulINtNtB7_7my_vect6VectorlEE3mulB7_
FN:325,_RNvXs5_NtCs7uYp9cqXM1e_7Lorenzo10linear_mapRINtNtB7_6my_mat6MatrixlEINtNtNtCs1TsYZUjtjaA_4core3ops5arith3MulRINtNtB7_7my_vect6VectorlEE3mulB7_
FN:30,_RNvXs_NtCs7uYp9cqXM1e_7Lorenzo10linear_mapRINtNtB6_6my_mat6MatrixlEINtNtNtCs1TsYZUjtjaA_4core3ops5arith3MullE3mulB6_
FN:178,_RINvNtCs7uYp9cqXM1e_7Lorenzo10linear_map10matmul_refINtCsjH9OezVP8vX_11num_complex7ComplexdEEB4_
FN:178,_RINvNtCs7uYp9cqXM1e_7Lorenzo10linear_map10matmul_refdEB4_
FN:178,_RINvNtCs7uYp9cqXM1e_7Lorenzo10linear_map10matmul_reflEB4_
FN:210,_RNCINvNtCs7uYp9cqXM1e_7Lorenzo10linear_map10matmul_refINtCsjH9OezVP8vX_11num_complex7ComplexdEE0B6_
FN:210,_RNCINvNtCs7uYp9cqXM1e_7Lorenzo10linear_map10matmul_refdE0B6_
FN:210,_RNCINvNtCs7uYp9cqXM1e_7Lorenzo10linear_map10matmul_reflE0B6_
FN:17,_RNCNvXNtCs7uYp9cqXM1e_7Lorenzo10linear_mapINtNtB6_6my_mat6MatrixdEINtNtNtCs1TsYZUjtjaA_4core3ops5arith3MuldE3mul0B6_
FN:131,_RNCNvXs2_NtCs7uYp9cqXM1e_7Lorenzo10linear_mapINtNtB9_6my_mat6MatrixlENtNtNtCs1TsYZUjtjaA_4core3ops5arith3Mul3muls_0B9_
FN:289,_RNCNvXs4_NtCs7uYp9cqXM1e_7Lorenzo10linear_mapINtNtB9_6my_mat6MatrixlEINtNtNtCs1TsYZUjtjaA_4core3ops5arith3MulINtNtB9_7my_vect6VectorlEE3mul0B9_
FN:343,_RNCNvXs5_NtCs7uYp9cqXM1e_7Lorenzo10linear_mapRINtNtB9_6my_mat6MatrixlEINtNtNtCs1TsYZUjtjaA_4core3ops5arith3MulRINtNtB9_7my_vect6VectorlEE3mul0B9_
FN:34,_RNCNvXs_NtCs7uYp9cqXM1e_7Lorenzo10linear_mapRINtNtB8_6my_mat6MatrixlEINtNtNtCs1TsYZUjtjaA_4core3ops5arith3MullE3mul0B8_
FN:408,_RNvNtNtCs7uYp9cqXM1e_7Lorenzo10linear_map5testss_10mat_vec_nd
FN:440,_RNvNtNtCs7uYp9cqXM1e_7Lorenzo10linear_map5testss_16borrowed_mat_vec
FN:428,_RNvNtNtCs7uYp9cqXM1e_7Lorenzo10linear_map5testss_18borrowed_matmul_2d
FN:455,_RNvNtNtCs7uYp9cqXM1e_7Lorenzo10linear_map5testss_19borrowed_scalar_mul
FN:521,_RNvNtNtCs7uYp9cqXM1e_7Lorenzo10linear_map5testss_20mat_vec_rank1_panics
FN:421,_RNvNtNtCs7uYp9cqXM1e_7Lorenzo10linear_map5testss_23matmul_bad_contract_dim
FN:537,_RNvNtNtCs7uYp9cqXM1e_7Lorenzo10linear_map5testss_28matmul_rank1_by_rank1_panics
FN:529,_RNvNtNtCs7uYp9cqXM1e_7Lorenzo10linear_map5testss_29borrowed_mat_vec_rank1_panics
FN:505,_RNvNtNtCs7uYp9cqXM1e_7Lorenzo10linear_map5testss_30mat_vec_length_mismatch_panics
FN:464,_RNvNtNtCs7uYp9cqXM1e_7Lorenzo10linear_map5testss_30rank1_matrix_vector_scalar_dot
FN:553,_RNvNtNtCs7uYp9cqXM1e_7Lorenzo10linear_map5testss_31matmul_zero_rank_operands_panic
FN:473,_RNvNtNtCs7uYp9cqXM1e_7Lorenzo10linear_map5testss_32dot_vector_requires_rank1_matrix
FN:481,_RNvNtNtCs7uYp9cqXM1e_7Lorenzo10linear_map5testss_33dot_vector_length_mismatch_panics
FN:489,_RNvNtNtCs7uYp9cqXM1e_7Lorenzo10linear_map5testss_34mat_vec_requires_rank_at_least_one
FN:545,_RNvNtNtCs7uYp9cqXM1e_7Lorenzo10linear_map5testss_37borrowed_matmul_rank1_by_rank1_panics
FN:513,_RNvNtNtCs7uYp9cqXM1e_7Lorenzo10linear_map5testss_39borrowed_mat_vec_length_mismatch_panics
FN:497,_RNvNtNtCs7uYp9cqXM1e_7Lorenzo10linear_map5testss_43borrowed_mat_vec_requires_rank_at_least_one
FN:378,_RNvNtNtCs7uYp9cqXM1e_7Lorenzo10linear_map5testss_9matmul_2d
FN:390,_RNvNtNtCs7uYp9cqXM1e_7Lorenzo10linear_map5testss_9matmul_nd
FN:120,_RNCNvXININtCs7uYp9cqXM1e_7Lorenzo10linear_maps2_0pEINtNtB9_6my_mat6MatrixpENtNtNtCs1TsYZUjtjaA_4core3ops5arith3Mul3mul0B9_
FNDA:4,_RNvMs1_NtCs7uYp9cqXM1e_7Lorenzo10linear_mapINtNtB7_6my_mat6MatrixlE10dot_vectorB7_
FNDA:1,_RNvXNtCs7uYp9cqXM1e_7Lorenzo10linear_mapINtNtB4_6my_mat6MatrixdEINtNtNtCs1TsYZUjtjaA_4core3ops5arith3MuldE3mulB4_
FNDA:2,_RNvXs0_NtCs7uYp9cqXM1e_7Lorenzo10linear_mapINtNtB7_6my_mat6MatrixdEINtNtNtCs1TsYZUjtjaA_4core3ops5arith9MulAssigndE10mul_assignB7_
FNDA:6,_RNvXs2_NtCs7uYp9cqXM1e_7Lorenzo10linear_mapINtNtB7_6my_mat6MatrixlENtNtNtCs1TsYZUjtjaA_4core3ops5arith3Mul3mulB7_
FNDA:1,_RNvXs3_NtCs7uYp9cqXM1e_7Lorenzo10linear_mapRINtNtB7_6my_mat6MatrixINtCsjH9OezVP8vX_11num_complex7ComplexdEENtNtNtCs1TsYZUjtjaA_4core3ops5arith3Mul3mulB7_
FNDA:1,_RNvXs3_NtCs7uYp9cqXM1e_7Lorenzo10linear_mapRINtNtB7_6my_mat6MatrixdENtNtNtCs1TsYZUjtjaA_4core3ops5arith3Mul3mulB7_
FNDA:2,_RNvXs3_NtCs7uYp9cqXM1e_7Lorenzo10linear_mapRINtNtB7_6my_mat6MatrixlENtNtNtCs1TsYZUjtjaA_4core3ops5arith3Mul3mulB7_
FNDA:5,_RNvXs4_NtCs7uYp9cqXM1e_7Lorenzo10linear_mapINtNtB7_6my_mat6MatrixlEINtNtNtCs1TsYZUjtjaA_4core3ops5arith3MulINtNtB7_7my_vect6VectorlEE3mulB7_
FNDA:4,_RNvXs5_NtCs7uYp9cqXM1e_7Lorenzo10linear_mapRINtNtB7_6my_mat6MatrixlEINtNtNtCs1TsYZUjtjaA_4core3ops5arith3MulRINtNtB7_7my_vect6VectorlEE3mulB7_
FNDA:1,_RNvXs_NtCs7uYp9cqXM1e_7Lorenzo10linear_mapRINtNtB6_6my_mat6MatrixlEINtNtNtCs1TsYZUjtjaA_4core3ops5arith3MullE3mulB6_
FNDA:1,_RINvNtCs7uYp9cqXM1e_7Lorenzo10linear_map10matmul_refINtCsjH9OezVP8vX_11num_complex7ComplexdEEB4_
FNDA:1,_RINvNtCs7uYp9cqXM1e_7Lorenzo10linear_map10matmul_refdEB4_
FNDA:2,_RINvNtCs7uYp9cqXM1e_7Lorenzo10linear_map10matmul_reflEB4_
FNDA:4,_RNCINvNtCs7uYp9cqXM1e_7Lorenzo10linear_map10matmul_refINtCsjH9OezVP8vX_11num_complex7ComplexdEE0B6_
FNDA:9,_RNCINvNtCs7uYp9cqXM1e_7Lorenzo10linear_map10matmul_refdE0B6_
FNDA:4,_RNCINvNtCs7uYp9cqXM1e_7Lorenzo10linear_map10matmul_reflE0B6_
FNDA:4,_RNCNvXNtCs7uYp9cqXM1e_7Lorenzo10linear_mapINtNtB6_6my_mat6MatrixdEINtNtNtCs1TsYZUjtjaA_4core3ops5arith3MuldE3mul0B6_
FNDA:38,_RNCNvXs2_NtCs7uYp9cqXM1e_7Lorenzo10linear_mapINtNtB9_6my_mat6MatrixlENtNtNtCs1TsYZUjtjaA_4core3ops5arith3Mul3muls_0B9_
FNDA:8,_RNCNvXs4_NtCs7uYp9cqXM1e_7Lorenzo10linear_mapINtNtB9_6my_mat6MatrixlEINtNtNtCs1TsYZUjtjaA_4core3ops5arith3MulINtNtB9_7my_vect6VectorlEE3mul0B9_
FNDA:6,_RNCNvXs5_NtCs7uYp9cqXM1e_7Lorenzo10linear_mapRINtNtB9_6my_mat6MatrixlEINtNtNtCs1TsYZUjtjaA_4core3ops5arith3MulRINtNtB9_7my_vect6VectorlEE3mul0B9_
FNDA:4,_RNCNvXs_NtCs7uYp9cqXM1e_7Lorenzo10linear_mapRINtNtB8_6my_mat6MatrixlEINtNtNtCs1TsYZUjtjaA_4core3ops5arith3MullE3mul0B8_
FNDA:1,_RNvNtNtCs7uYp9cqXM1e_7Lorenzo10linear_map5testss_10mat_vec_nd
FNDA:1,_RNvNtNtCs7uYp9cqXM1e_7Lorenzo10linear_map5testss_16borrowed_mat_vec
FNDA:1,_RNvNtNtCs7uYp9cqXM1e_7Lorenzo10linear_map5testss_18borrowed_matmul_2d
FNDA:1,_RNvNtNtCs7uYp9cqXM1e_7Lorenzo10linear_map5testss_19borrowed_scalar_mul
FNDA:1,_RNvNtNtCs7uYp9cqXM1e_7Lorenzo10linear_map5testss_20mat_vec_rank1_panics
FNDA:1,_RNvNtNtCs7uYp9cqXM1e_7Lorenzo10linear_map5testss_23matmul_bad_contract_dim
FNDA:1,_RNvNtNtCs7uYp9cqXM1e_7Lorenzo10linear_map5testss_28matmul_rank1_by_rank1_panics
FNDA:1,_RNvNtNtCs7uYp9cqXM1e_7Lorenzo10linear_map5testss_29borrowed_mat_vec_rank1_panics
FNDA:1,_RNvNtNtCs7uYp9cqXM1e_7Lorenzo10linear_map5testss_30mat_vec_length_mismatch_panics
FNDA:1,_RNvNtNtCs7uYp9cqXM1e_7Lorenzo10linear_map5testss_30rank1_matrix_vector_scalar_dot
FNDA:1,_RNvNtNtCs7uYp9cqXM1e_7Lorenzo10linear_map5testss_31matmul_zero_rank_operands_panic
FNDA:1,_RNvNtNtCs7uYp9cqXM1e_7Lorenzo10linear_map5testss_32dot_vector_requires_rank1_matrix
FNDA:1,_RNvNtNtCs7uYp9cqXM1e_7Lorenzo10linear_map5testss_33dot_vector_length_mismatch_panics
FNDA:1,_RNvNtNtCs7uYp9cqXM1e_7Lorenzo10linear_map5testss_34mat_vec_requires_rank_at_least_one
FNDA:1,_RNvNtNtCs7uYp9cqXM1e_7Lorenzo10linear_map5testss_37borrowed_matmul_rank1_by_rank1_panics
FNDA:1,_RNvNtNtCs7uYp9cqXM1e_7Lorenzo10linear_map5testss_39borrowed_mat_vec_length_mismatch_panics
FNDA:1,_RNvNtNtCs7uYp9cqXM1e_7Lorenzo10linear_map5testss_43borrowed_mat_vec_requires_rank_at_least_one
FNDA:1,_RNvNtNtCs7uYp9cqXM1e_7Lorenzo10linear_map5testss_9matmul_2d
FNDA:1,_RNvNtNtCs7uYp9cqXM1e_7Lorenzo10linear_map5testss_9matmul_nd
FNDA:0,_RNCNvXININtCs7uYp9cqXM1e_7Lorenzo10linear_maps2_0pEINtNtB9_6my_mat6MatrixpENtNtNtCs1TsYZUjtjaA_4core3ops5arith3Mul3mul0B9_
FNF:35
FNH:34
DA:13,1
DA:14,1
DA:15,1
DA:16,1
DA:17,4
DA:18,1
DA:19,1
DA:20,1
DA:30,1
DA:31,1
DA:32,1
DA:33,1
DA:34,4
DA:35,1
DA:36,1
DA:37,1
DA:44,2
DA:45,8
DA:46,8
DA:47,8
DA:48,2
DA:58,4
DA:59,4
DA:60,3
DA:61,3
DA:62,2
DA:63,7
DA:64,7
DA:65,7
DA:66,7
DA:67,7
DA:68,2
DA:69,2
DA:87,6
DA:88,6
DA:89,6
DA:90,6
DA:91,6
DA:95,5
DA:96,5
DA:97,5
DA:98,5
DA:105,4
DA:106,4
DA:107,4
DA:109,4
DA:110,1
DA:111,3
DA:113,3
DA:114,3
DA:116,3
DA:117,3
DA:120,3
DA:121,0
DA:122,0
DA:123,0
DA:124,0
DA:125,0
DA:126,0
DA:127,0
DA:128,0
DA:129,0
DA:131,38
DA:132,38
DA:133,0
DA:134,38
DA:135,38
DA:136,106
DA:137,106
DA:138,106
DA:139,106
DA:140,106
DA:141,38
DA:142,38
DA:144,38
DA:145,38
DA:148,38
DA:149,38
DA:150,38
DA:151,38
DA:153,38
DA:155,144
DA:156,144
DA:157,144
DA:158,144
DA:159,144
DA:160,144
DA:161,144
DA:162,144
DA:163,144
DA:164,144
DA:165,144
DA:166,144
DA:167,144
DA:168,144
DA:169,144
DA:170,38
DA:173,3
DA:174,3
DA:178,4
DA:179,4
DA:180,4
DA:182,4
DA:183,4
DA:184,4
DA:185,4
DA:189,4
DA:190,4
DA:191,4
DA:192,4
DA:198,4
DA:199,4
DA:200,4
DA:201,4
DA:202,1
DA:203,3
DA:204,3
DA:205,3
DA:207,3
DA:208,3
DA:210,17
DA:211,17
DA:212,0
DA:213,17
DA:214,17
DA:215,34
DA:216,34
DA:217,34
DA:218,34
DA:219,34
DA:220,17
DA:221,17
DA:223,17
DA:224,17
DA:225,17
DA:226,17
DA:227,17
DA:228,17
DA:229,17
DA:230,43
DA:231,43
DA:232,43
DA:233,43
DA:234,43
DA:235,43
DA:236,43
DA:237,43
DA:238,43
DA:239,43
DA:240,43
DA:241,17
DA:243,3
DA:244,3
DA:252,4
DA:253,4
DA:254,4
DA:266,5
DA:267,5
DA:268,5
DA:269,5
DA:272,4
DA:273,4
DA:274,4
DA:277,1
DA:282,3
DA:283,1
DA:284,2
DA:285,2
DA:286,2
DA:289,8
DA:290,8
DA:291,0
DA:292,8
DA:293,8
DA:294,14
DA:295,14
DA:296,14
DA:297,14
DA:298,14
DA:299,8
DA:300,8
DA:302,8
DA:303,8
DA:304,8
DA:305,30
DA:306,30
DA:307,30
DA:308,30
DA:309,30
DA:310,30
DA:311,30
DA:312,8
DA:315,2
DA:316,2
DA:325,4
DA:326,4
DA:327,4
DA:328,4
DA:331,3
DA:332,3
DA:333,3
DA:336,1
DA:338,2
DA:339,1
DA:340,1
DA:341,1
DA:342,1
DA:343,6
DA:344,6
DA:345,0
DA:346,6
DA:347,6
DA:348,12
DA:349,12
DA:350,12
DA:351,12
DA:352,12
DA:353,6
DA:354,6
DA:355,6
DA:356,6
DA:357,6
DA:358,24
DA:359,24
DA:360,24
DA:361,24
DA:362,24
DA:363,24
DA:364,24
DA:365,6
DA:367,1
DA:368,1
DA:378,1
DA:379,1
DA:380,1
DA:381,1
DA:382,1
DA:383,1
DA:384,1
DA:385,1
DA:387,1
DA:390,1
DA:392,1
DA:393,1
DA:394,1
DA:396,1
DA:397,1
DA:398,1
DA:399,1
DA:400,1
DA:403,1
DA:404,1
DA:405,1
DA:408,1
DA:410,1
DA:411,1
DA:412,1
DA:414,1
DA:415,1
DA:416,1
DA:417,1
DA:421,1
DA:422,1
DA:423,1
DA:424,1
DA:425,1
DA:428,1
DA:429,1
DA:430,1
DA:431,1
DA:433,1
DA:434,1
DA:435,1
DA:436,1
DA:437,1
DA:440,1
DA:442,1
DA:443,1
DA:444,1
DA:446,1
DA:447,1
DA:448,1
DA:450,1
DA:451,1
DA:452,1
DA:455,1
DA:456,1
DA:457,1
DA:458,1
DA:460,1
DA:461,1
DA:464,1
DA:465,1
DA:466,1
DA:467,1
DA:468,1
DA:469,1
DA:473,1
DA:474,1
DA:475,1
DA:476,1
DA:477,1
DA:481,1
DA:482,1
DA:483,1
DA:484,1
DA:485,1
DA:489,1
DA:490,1
DA:491,1
DA:492,1
DA:493,1
DA:497,1
DA:498,1
DA:499,1
DA:500,1
DA:501,1
DA:505,1
DA:506,1
DA:507,1
DA:508,1
DA:509,1
DA:513,1
DA:514,1
DA:515,1
DA:516,1
DA:517,1
DA:521,1
DA:522,1
DA:523,1
DA:524,1
DA:525,1
DA:529,1
DA:530,1
DA:531,1
DA:532,1
DA:533,1
DA:537,1
DA:538,1
DA:539,1
DA:540,1
DA:541,1
DA:545,1
DA:546,1
DA:547,1
DA:548,1
DA:549,1
DA:553,1
DA:554,1
DA:555,1
DA:556,1
DA:557,1
BRDA:91,0,0,5
BRDA:91,0,1,1
BRDA:91,1,2,5
BRDA:91,1,3,0
BRDA:109,0,0,1
BRDA:109,0,1,3
BRDA:132,0,0,0
BRDA:132,0,1,38
BRDA:185,0,0,4
BRDA:185,0,1,0
BRDA:185,1,2,4
BRDA:185,1,3,0
BRDA:201,0,0,1
BRDA:201,0,1,3
BRDA:211,0,0,0
BRDA:211,0,1,17
BRDA:282,0,0,1
BRDA:282,0,1,2
BRDA:290,0,0,0
BRDA:290,0,1,8
BRDA:338,0,0,1
BRDA:338,0,1,1
BRDA:344,0,0,0
BRDA:344,0,1,6
BRF:24
BRH:17
LF:359
LH:345
end_of_record
SF:/home/runner/work/matrix/matrix/Lorenzo/src/main.rs
FN:546,_RINvNtCs7uYp9cqXM1e_7Lorenzo5tests10to_f64_vecdINtNtNtNtCs1TsYZUjtjaA_4core4iter8adapters6cloned6ClonedINtNtNtBS_5slice4iter4IterdEEEB4_
FN:546,_RINvNtCs7uYp9cqXM1e_7Lorenzo5tests10to_f64_vecfINtNtNtNtCs1TsYZUjtjaA_4core4iter8adapters6cloned6ClonedINtNtNtBS_5slice4iter4IterfEEEB4_
FN:548,_RNCINvNtCs7uYp9cqXM1e_7Lorenzo5tests10to_f64_vecdINtNtNtNtCs1TsYZUjtjaA_4core4iter8adapters6cloned6ClonedINtNtNtBU_5slice4iter4IterdEEE0B6_
FN:548,_RNCINvNtCs7uYp9cqXM1e_7Lorenzo5tests10to_f64_vecfINtNtNtNtCs1TsYZUjtjaA_4core4iter8adapters6cloned6ClonedINtNtNtBU_5slice4iter4IterfEEE0B6_
FN:542,_RNvNtCs7uYp9cqXM1e_7Lorenzo5tests13approx_eq_f32
FN:553,_RNvNtCs7uYp9cqXM1e_7Lorenzo5testss_20vector_add_sub_scale
FN:621,_RNvNtCs7uYp9cqXM1e_7Lorenzo5testss_22norms_real_and_complex
FN:685,_RNvNtCs7uYp9cqXM1e_7Lorenzo5testss_25trace_examples_match_main
FN:573,_RNvNtCs7uYp9cqXM1e_7Lorenzo5testss_30matrix_add_sub_scale_and_index
FN:634,_RNvNtCs7uYp9cqXM1e_7Lorenzo5testss_31dot_product_examples_match_main
FN:719,_RNvNtCs7uYp9cqXM1e_7Lorenzo5testss_31row_echelon_examples_match_main
FN:669,_RNvNtCs7uYp9cqXM1e_7Lorenzo5testss_34cross_product_example_matches_main
FN:660,_RNvNtCs7uYp9cqXM1e_7Lorenzo5testss_34matrix_vector_example_matches_main
FN:594,_RNvNtCs7uYp9cqXM1e_7Lorenzo5testss_36linear_combination_and_lerp_examples
FN:678,_RNvNtCs7uYp9cqXM1e_7Lorenzo5testss_37rank1_matrix_dot_example_matches_main
FN:650,_RNvNtCs7uYp9cqXM1e_7Lorenzo5testss_42matrix_multiplication_example_matches_main
FN:37,_RNvCs7uYp9cqXM1e_7Lorenzo3sub
FN:41,_RNvCs7uYp9cqXM1e_7Lorenzo4main
FN:33,_RNvCs7uYp9cqXM1e_7Lorenzo6header
FNDA:5,_RINvNtCs7uYp9cqXM1e_7Lorenzo5tests10to_f64_vecdINtNtNtNtCs1TsYZUjtjaA_4core4iter8adapters6cloned6ClonedINtNtNtBS_5slice4iter4IterdEEEB4_
FNDA:1,_RINvNtCs7uYp9cqXM1e_7Lorenzo5tests10to_f64_vecfINtNtNtNtCs1TsYZUjtjaA_4core4iter8adapters6cloned6ClonedINtNtNtBS_5slice4iter4IterfEEEB4_
FNDA:11,_RNCINvNtCs7uYp9cqXM1e_7Lorenzo5tests10to_f64_vecdINtNtNtNtCs1TsYZUjtjaA_4core4iter8adapters6cloned6ClonedINtNtNtBU_5slice4iter4IterdEEE0B6_
FNDA:3,_RNCINvNtCs7uYp9cqXM1e_7Lorenzo5tests10to_f64_vecfINtNtNtNtCs1TsYZUjtjaA_4core4iter8adapters6cloned6ClonedINtNtNtBU_5slice4iter4IterfEEE0B6_
FNDA:2,_RNvNtCs7uYp9cqXM1e_7Lorenzo5tests13approx_eq_f32
FNDA:1,_RNvNtCs7uYp9cqXM1e_7Lorenzo5testss_20vector_add_sub_scale
FNDA:1,_RNvNtCs7uYp9cqXM1e_7Lorenzo5testss_22norms_real_and_complex
FNDA:1,_RNvNtCs7uYp9cqXM1e_7Lorenzo5testss_25trace_examples_match_main
FNDA:1,_RNvNtCs7uYp9cqXM1e_7Lorenzo5testss_30matrix_add_sub_scale_and_index
FNDA:1,_RNvNtCs7uYp9cqXM1e_7Lorenzo5testss_31dot_product_examples_match_main
FNDA:1,_RNvNtCs7uYp9cqXM1e_7Lorenzo5testss_31row_echelon_examples_match_main
FNDA:1,_RNvNtCs7uYp9cqXM1e_7Lorenzo5testss_34cross_product_example_matches_main
FNDA:1,_RNvNtCs7uYp9cqXM1e_7Lorenzo5testss_34matrix_vector_example_matches_main
FNDA:1,_RNvNtCs7uYp9cqXM1e_7Lorenzo5testss_36linear_combination_and_lerp_examples
FNDA:1,_RNvNtCs7uYp9cqXM1e_7Lorenzo5testss_37rank1_matrix_dot_example_matches_main
FNDA:1,_RNvNtCs7uYp9cqXM1e_7Lorenzo5testss_42matrix_multiplication_example_matches_main
FNDA:0,_RNvCs7uYp9cqXM1e_7Lorenzo3sub
FNDA:0,_RNvCs7uYp9cqXM1e_7Lorenzo4main
FNDA:0,_RNvCs7uYp9cqXM1e_7Lorenzo6header
FNF:17
FNH:14
DA:33,0
DA:34,0
DA:35,0
DA:37,0
DA:38,0
DA:39,0
DA:41,0
DA:43,0
DA:44,0
DA:45,0
DA:46,0
DA:47,0
DA:48,0
DA:49,0
DA:50,0
DA:51,0
DA:52,0
DA:53,0
DA:54,0
DA:55,0
DA:57,0
DA:58,0
DA:59,0
DA:60,0
DA:61,0
DA:62,0
DA:63,0
DA:64,0
DA:66,0
DA:67,0
DA:68,0
DA:69,0
DA:70,0
DA:71,0
DA:72,0
DA:73,0
DA:74,0
DA:75,0
DA:76,0
DA:77,0
DA:78,0
DA:79,0
DA:83,0
DA:84,0
DA:85,0
DA:86,0
DA:87,0
DA:89,0
DA:90,0
DA:91,0
DA:92,0
DA:93,0
DA:94,0
DA:95,0
DA:96,0
DA:97,0
DA:98,0
DA:99,0
DA:100,0
DA:101,0
DA:103,0
DA:104,0
DA:105,0
DA:107,0
DA:110,0
DA:111,0
DA:112,0
DA:113,0
DA:114,0
DA:117,0
DA:118,0
DA:119,0
DA:120,0
DA:121,0
DA:124,0
DA:125,0
DA:126,0
DA:129,0
DA:130,0
DA:131,0
DA:132,0
DA:133,0
DA:134,0
DA:135,0
DA:136,0
DA:137,0
DA:138,0
DA:140,0
DA:144,0
DA:145,0
DA:146,0
DA:147,0
DA:149,0
DA:151,0
DA:153,0
DA:154,0
DA:155,0
DA:156,0
DA:157,0
DA:158,0
DA:159,0
DA:160,0
DA:163,0
DA:164,0
DA:165,0
DA:166,0
DA:168,0
DA:169,0
DA:170,0
DA:171,0
DA:173,0
DA:174,0
DA:175,0
DA:177,0
DA:178,0
DA:179,0
DA:181,0
DA:182,0
DA:183,0
DA:185,0
DA:186,0
DA:187,0
DA:191,0
DA:192,0
DA:193,0
DA:194,0
DA:195,0
DA:196,0
DA:197,0
DA:198,0
DA:199,0
DA:201,0
DA:203,0
DA:204,0
DA:205,0
DA:206,0
DA:209,0
DA:210,0
DA:211,0
DA:212,0
DA:213,0
DA:214,0
DA:215,0
DA:216,0
DA:217,0
DA:218,0
DA:219,0
DA:220,0
DA:221,0
DA:222,0
DA:223,0
DA:225,0
DA:226,0
DA:227,0
DA:228,0
DA:229,0
DA:230,0
DA:231,0
DA:233,0
DA:234,0
DA:235,0
DA:236,0
DA:237,0
DA:241,0
DA:242,0
DA:243,0
DA:244,0
DA:245,0
DA:246,0
DA:247,0
DA:248,0
DA:249,0
DA:250,0
DA:251,0
DA:253,0
DA:254,0
DA:255,0
DA:256,0
DA:257,0
DA:258,0
DA:260,0
DA:261,0
DA:262,0
DA:263,0
DA:265,0
DA:266,0
DA:269,0
DA:270,0
DA:271,0
DA:272,0
DA:273,0
DA:274,0
DA:275,0
DA:276,0
DA:277,0
DA:278,0
DA:279,0
DA:282,0
DA:283,0
DA:284,0
DA:285,0
DA:286,0
DA:288,0
DA:290,0
DA:291,0
DA:292,0
DA:293,0
DA:294,0
DA:296,0
DA:297,0
DA:298,0
DA:299,0
DA:301,0
DA:303,0
DA:305,0
DA:308,0
DA:309,0
DA:310,0
DA:311,0
DA:313,0
DA:317,0
DA:318,0
DA:319,0
DA:320,0
DA:321,0
DA:323,0
DA:324,0
DA:325,0
DA:326,0
DA:328,0
DA:329,0
DA:330,0
DA:334,0
DA:336,0
DA:337,0
DA:339,0
DA:342,0
DA:343,0
DA:344,0
DA:345,0
DA:347,0
DA:350,0
DA:351,0
DA:352,0
DA:353,0
DA:355,0
DA:356,0
DA:357,0
DA:360,0
DA:361,0
DA:362,0
DA:363,0
DA:364,0
DA:365,0
DA:367,0
DA:368,0
DA:369,0
DA:371,0
DA:372,0
DA:373,0
DA:374,0
DA:376,0
DA:377,0
DA:378,0
DA:379,0
DA:380,0
DA:382,0
DA:383,0
DA:384,0
DA:386,0
DA:387,0
DA:388,0
DA:389,0
DA:390,0
DA:392,0
DA:393,0
DA:394,0
DA:397,0
DA:398,0
DA:399,0
DA:400,0
DA:401,0
DA:403,0
DA:404,0
DA:405,0
DA:406,0
DA:408,0
DA:409,0
DA:410,0
DA:411,0
DA:413,0
DA:414,0
DA:415,0
DA:418,0
DA:419,0
DA:420,0
DA:421,0
DA:422,0
DA:424,0
DA:425,0
DA:426,0
DA:427,0
DA:428,0
DA:429,0
DA:430,0
DA:431,0
DA:432,0
DA:434,0
DA:436,0
DA:439,0
DA:440,0
DA:441,0
DA:442,0
DA:443,0
DA:444,0
DA:445,0
DA:446,0
DA:447,0
DA:448,0
DA:450,0
DA:452,0
DA:453,0
DA:455,0
DA:456,0
DA:457,0
DA:458,0
DA:459,0
DA:461,0
DA:462,0
DA:463,0
DA:464,0
DA:465,0
DA:466,0
DA:467,0
DA:468,0
DA:469,0
DA:470,0
DA:471,0
DA:472,0
DA:474,0
DA:476,0
DA:477,0
DA:479,0
DA:480,0
DA:481,0
DA:482,0
DA:483,0
DA:484,0
DA:487,0
DA:488,0
DA:489,0
DA:490,0
DA:492,0
DA:493,0
DA:494,0
DA:495,0
DA:496,0
DA:498,0
DA:499,0
DA:500,0
DA:501,0
DA:502,0
DA:503,0
DA:504,0
DA:506,0
DA:507,0
DA:508,0
DA:509,0
DA:510,0
DA:511,0
DA:512,0
DA:513,0
DA:514,0
DA:515,0
DA:517,0
DA:519,0
DA:522,0
DA:524,0
DA:526,0
DA:528,0
DA:529,0
DA:542,2
DA:543,2
DA:544,2
DA:546,6
DA:547,6
DA:548,14
DA:549,6
DA:550,6
DA:553,1
DA:554,1
DA:555,1
DA:556,1
DA:557,1
DA:558,1
DA:560,1
DA:561,1
DA:562,1
DA:563,1
DA:564,1
DA:566,1
DA:567,1
DA:568,1
DA:569,1
DA:570,1
DA:573,1
DA:574,1
DA:575,1
DA:576,1
DA:578,1
DA:579,1
DA:580,1
DA:581,1
DA:583,1
DA:584,1
DA:585,1
DA:586,1
DA:588,1
DA:589,1
DA:590,1
DA:591,1
DA:594,1
DA:595,1
DA:596,1
DA:597,1
DA:598,1
DA:600,1
DA:601,1
DA:602,1
DA:603,1
DA:605,1
DA:606,1
DA:607,1
DA:608,1
DA:609,1
DA:610,1
DA:612,1
DA:613,1
DA:614,1
DA:615,1
DA:616,1
DA:617,1
DA:618,1
DA:621,1
DA:623,1
DA:624,1
DA:625,1
DA:628,1
DA:629,1
DA:630,1
DA:631,1
DA:634,1
DA:635,1
DA:636,1
DA:637,1
DA:639,1
DA:640,1
DA:641,1
DA:643,1
DA:644,1
DA:645,1
DA:646,1
DA:647,1
DA:650,1
DA:651,1
DA:652,1
DA:653,1
DA:654,1
DA:655,1
DA:656,1
DA:657,1
DA:660,1
DA:661,1
DA:662,1
DA:663,1
DA:664,1
DA:665,1
DA:666,1
DA:669,1
DA:670,1
DA:671,1
DA:672,1
DA:673,1
DA:674,1
DA:675,1
DA:678,1
DA:679,1
DA:680,1
DA:681,1
DA:682,1
DA:685,1
DA:687,1
DA:688,1
DA:691,1
DA:692,1
DA:693,1
DA:696,1
DA:697,1
DA:701,1
DA:703,1
DA:706,1
DA:707,1
DA:710,1
DA:711,1
DA:712,1
DA:714,1
DA:715,1
DA:716,1
DA:719,1
DA:721,1
DA:722,1
DA:723,1
DA:724,1
DA:726,1
DA:727,1
DA:730,1
DA:731,1
DA:734,1
DA:735,1
DA:738,1
DA:739,1
DA:740,1
DA:743,1
DA:744,1
DA:745,1
DA:746,1
DA:748,1
DA:749,1
DA:750,1
DA:751,1
DA:752,1
DA:753,1
BRF:0
BRH:0
LF:533
LH:152
end_of_record
SF:/home/runner/work/matrix/matrix/Lorenzo/src/my_mat.rs
FN:300,_RNvXsb_NtCs7uYp9cqXM1e_7Lorenzo6my_matINtNtCsfKxrorEVQSK_5alloc3vec3VecIBB_IBB_IBB_lEEEEINtB5_6NestedlE12flatten_intoB7_
FN:279,_RNvXsb_NtCs7uYp9cqXM1e_7Lorenzo6my_matINtNtCsfKxrorEVQSK_5alloc3vec3VecIBB_IBB_IBB_lEEEEINtB5_6NestedlE13shape_checkedB7_
FN:300,_RNvXsb_NtCs7uYp9cqXM1e_7Lorenzo6my_matINtNtCsfKxrorEVQSK_5alloc3vec3VecIBB_IBB_lEEEINtB5_6NestedlE12flatten_intoB7_
FN:279,_RNvXsb_NtCs7uYp9cqXM1e_7Lorenzo6my_matINtNtCsfKxrorEVQSK_5alloc3vec3VecIBB_IBB_lEEEINtB5_6NestedlE13shape_checkedB7_
FN:300,_RNvXsb_NtCs7uYp9cqXM1e_7Lorenzo6my_matINtNtCsfKxrorEVQSK_5alloc3vec3VecIBB_INtCsjH9OezVP8vX_11num_complex7ComplexdEEEINtB5_6NestedB1b_E12flatten_intoB7_
FN:279,_RNvXsb_NtCs7uYp9cqXM1e_7Lorenzo6my_matINtNtCsfKxrorEVQSK_5alloc3vec3VecIBB_INtCsjH9OezVP8vX_11num_complex7ComplexdEEEINtB5_6NestedB1b_E13shape_checkedB7_
FN:300,_RNvXsb_NtCs7uYp9cqXM1e_7Lorenzo6my_matINtNtCsfKxrorEVQSK_5alloc3vec3VecIBB_dEEINtB5_6NesteddE12flatten_intoB7_
FN:279,_RNvXsb_NtCs7uYp9cqXM1e_7Lorenzo6my_matINtNtCsfKxrorEVQSK_5alloc3vec3VecIBB_dEEINtB5_6NesteddE13shape_checkedB7_
FN:300,_RNvXsb_NtCs7uYp9cqXM1e_7Lorenzo6my_matINtNtCsfKxrorEVQSK_5alloc3vec3VecIBB_lEEINtB5_6NestedlE12flatten_intoB7_
FN:279,_RNvXsb_NtCs7uYp9cqXM1e_7Lorenzo6my_matINtNtCsfKxrorEVQSK_5alloc3vec3VecIBB_lEEINtB5_6NestedlE13shape_checkedB7_
FN:300,_RNvXsb_NtCs7uYp9cqXM1e_7Lorenzo6my_matINtNtCsfKxrorEVQSK_5alloc3vec3VecINtCsjH9OezVP8vX_11num_complex7ComplexdEEINtB5_6NestedB17_E12flatten_intoB7_
FN:279,_RNvXsb_NtCs7uYp9cqXM1e_7Lorenzo6my_matINtNtCsfKxrorEVQSK_5alloc3vec3VecINtCsjH9OezVP8vX_11num_complex7ComplexdEEINtB5_6NestedB17_E13shape_checkedB7_
FN:300,_RNvXsb_NtCs7uYp9cqXM1e_7Lorenzo6my_matINtNtCsfKxrorEVQSK_5alloc3vec3VecdEINtB5_6NesteddE12flatten_intoB7_
FN:279,_RNvXsb_NtCs7uYp9cqXM1e_7Lorenzo6my_matINtNtCsfKxrorEVQSK_5alloc3vec3VecdEINtB5_6NesteddE13shape_checkedB7_
FN:300,_RNvXsb_NtCs7uYp9cqXM1e_7Lorenzo6my_matINtNtCsfKxrorEVQSK_5alloc3vec3VeclEINtB5_6NestedlE12flatten_intoB7_
FN:279,_RNvXsb_NtCs7uYp9cqXM1e_7Lorenzo6my_matINtNtCsfKxrorEVQSK_5alloc3vec3VeclEINtB5_6NestedlE13shape_checkedB7_
FN:93,_RINvMNtCs7uYp9cqXM1e_7Lorenzo6my_matINtB3_6MatrixdE20write_display_formatReEB5_
FN:93,_RINvMNtCs7uYp9cqXM1e_7Lorenzo6my_matINtB3_6MatrixlE20write_display_formatReEB5_
FN:311,_RINvMsc_NtCs7uYp9cqXM1e_7Lorenzo6my_matINtB6_6MatrixINtCsjH9OezVP8vX_11num_complex7ComplexdEE15try_from_nestedINtNtCsfKxrorEVQSK_5alloc3vec3VecBO_EEB8_
FN:311,_RINvMsc_NtCs7uYp9cqXM1e_7Lorenzo6my_matINtB6_6MatrixINtCsjH9OezVP8vX_11num_complex7ComplexdEE15try_from_nestedINtNtCsfKxrorEVQSK_5alloc3vec3VecIB1L_BO_EEEB8_
FN:311,_RINvMsc_NtCs7uYp9cqXM1e_7Lorenzo6my_matINtB6_6MatrixdE15try_from_nestedINtNtCsfKxrorEVQSK_5alloc3vec3VecIB18_dEEEB8_
FN:311,_RINvMsc_NtCs7uYp9cqXM1e_7Lorenzo6my_matINtB6_6MatrixdE15try_from_nestedINtNtCsfKxrorEVQSK_5alloc3vec3VecdEEB8_
FN:311,_RINvMsc_NtCs7uYp9cqXM1e_7Lorenzo6my_matINtB6_6MatrixlE15try_from_nestedINtNtCsfKxrorEVQSK_5alloc3vec3VecIB18_IB18_IB18_lEEEEEB8_
FN:311,_RINvMsc_NtCs7uYp9cqXM1e_7Lorenzo6my_matINtB6_6MatrixlE15try_from_nestedINtNtCsfKxrorEVQSK_5alloc3vec3VecIB18_IB18_lEEEEB8_
FN:311,_RINvMsc_NtCs7uYp9cqXM1e_7Lorenzo6my_matINtB6_6MatrixlE15try_from_nestedINtNtCsfKxrorEVQSK_5alloc3vec3VecIB18_lEEEB8_
FN:311,_RINvMsc_NtCs7uYp9cqXM1e_7Lorenzo6my_matINtB6_6MatrixlE15try_from_nestedINtNtCsfKxrorEVQSK_5alloc3vec3VeclEEB8_
FN:334,_RINvMsc_NtCs7uYp9cqXM1e_7Lorenzo6my_matINtB6_6MatrixlE21from_nested_uncheckedINtNtCsfKxrorEVQSK_5alloc3vec3VecIB1e_IB1e_lEEEEB8_
FN:334,_RINvMsc_NtCs7uYp9cqXM1e_7Lorenzo6my_matINtB6_6MatrixlE21from_nested_uncheckedINtNtCsfKxrorEVQSK_5alloc3vec3VecIB1e_lEEEB8_
FN:334,_RINvMsc_NtCs7uYp9cqXM1e_7Lorenzo6my_matINtB6_6MatrixlE21from_nested_uncheckedINtNtCsfKxrorEVQSK_5alloc3vec3VeclEEB8_
FN:56,_RNCNvMNtCs7uYp9cqXM1e_7Lorenzo6my_matINtB4_6MatrixINtCsjH9OezVP8vX_11num_complex7ComplexdEE3get0B6_
FN:61,_RNCNvMNtCs7uYp9cqXM1e_7Lorenzo6my_matINtB4_6MatrixINtCsjH9OezVP8vX_11num_complex7ComplexdEE7get_mut0B6_
FN:56,_RNCNvMNtCs7uYp9cqXM1e_7Lorenzo6my_matINtB4_6MatrixINtCsjH9OezVP8vX_11num_complex7ComplexfEE3get0B6_
FN:56,_RNCNvMNtCs7uYp9cqXM1e_7Lorenzo6my_matINtB4_6MatrixdE3get0B6_
FN:61,_RNCNvMNtCs7uYp9cqXM1e_7Lorenzo6my_matINtB4_6MatrixdE7get_mut0B6_
FN:56,_RNCNvMNtCs7uYp9cqXM1e_7Lorenzo6my_matINtB4_6MatrixfE3get0B6_
FN:56,_RNCNvMNtCs7uYp9cqXM1e_7Lorenzo6my_matINtB4_6MatrixlE3get0B6_
FN:61,_RNCNvMNtCs7uYp9cqXM1e_7Lorenzo6my_matINtB4_6MatrixlE7get_mut0B6_
FN:78,_RNvMNtCs7uYp9cqXM1e_7Lorenzo6my_matINtB2_6MatrixINtCsjH9OezVP8vX_11num_complex7ComplexdEE10data_cloneB4_
FN:40,_RNvMNtCs7uYp9cqXM1e_7Lorenzo6my_matINtB2_6MatrixINtCsjH9OezVP8vX_11num_complex7ComplexdEE10index_flatB4_
FN:55,_RNvMNtCs7uYp9cqXM1e_7Lorenzo6my_matINtB2_6MatrixINtCsjH9OezVP8vX_11num_complex7ComplexdEE3getB4_
FN:70,_RNvMNtCs7uYp9cqXM1e_7Lorenzo6my_matINtB2_6MatrixINtCsjH9OezVP8vX_11num_complex7ComplexdEE3lenB4_
FN:18,_RNvMNtCs7uYp9cqXM1e_7Lorenzo6my_matINtB2_6MatrixINtCsjH9OezVP8vX_11num_complex7ComplexdEE3newB4_
FN:35,_RNvMNtCs7uYp9cqXM1e_7Lorenzo6my_matINtB2_6MatrixINtCsjH9OezVP8vX_11num_complex7ComplexdEE4dimsB4_
FN:60,_RNvMNtCs7uYp9cqXM1e_7Lorenzo6my_matINtB2_6MatrixINtCsjH9OezVP8vX_11num_complex7ComplexdEE7get_mutB4_
FN:74,_RNvMNtCs7uYp9cqXM1e_7Lorenzo6my_matINtB2_6MatrixINtCsjH9OezVP8vX_11num_complex7ComplexdEE9is_squareB4_
FN:40,_RNvMNtCs7uYp9cqXM1e_7Lorenzo6my_matINtB2_6MatrixINtCsjH9OezVP8vX_11num_complex7ComplexfEE10index_flatB4_
FN:55,_RNvMNtCs7uYp9cqXM1e_7Lorenzo6my_matINtB2_6MatrixINtCsjH9OezVP8vX_11num_complex7ComplexfEE3getB4_
FN:18,_RNvMNtCs7uYp9cqXM1e_7Lorenzo6my_matINtB2_6MatrixINtCsjH9OezVP8vX_11num_complex7ComplexfEE3newB4_
FN:35,_RNvMNtCs7uYp9cqXM1e_7Lorenzo6my_matINtB2_6MatrixINtCsjH9OezVP8vX_11num_complex7ComplexfEE4dimsB4_
FN:40,_RNvMNtCs7uYp9cqXM1e_7Lorenzo6my_matINtB2_6MatrixdE10index_flatB4_
FN:65,_RNvMNtCs7uYp9cqXM1e_7Lorenzo6my_matINtB2_6MatrixdE11linear_iterB4_
FN:55,_RNvMNtCs7uYp9cqXM1e_7Lorenzo6my_matINtB2_6MatrixdE3getB4_
FN:18,_RNvMNtCs7uYp9cqXM1e_7Lorenzo6my_matINtB2_6MatrixdE3newB4_
FN:35,_RNvMNtCs7uYp9cqXM1e_7Lorenzo6my_matINtB2_6MatrixdE4dimsB4_
FN:60,_RNvMNtCs7uYp9cqXM1e_7Lorenzo6my_matINtB2_6MatrixdE7get_mutB4_
FN:74,_RNvMNtCs7uYp9cqXM1e_7Lorenzo6my_matINtB2_6MatrixdE9is_squareB4_
FN:40,_RNvMNtCs7uYp9cqXM1e_7Lorenzo6my_matINtB2_6MatrixfE10index_flatB4_
FN:55,_RNvMNtCs7uYp9cqXM1e_7Lorenzo6my_matINtB2_6MatrixfE3getB4_
FN:18,_RNvMNtCs7uYp9cqXM1e_7Lorenzo6my_matINtB2_6MatrixfE3newB4_
FN:35,_RNvMNtCs7uYp9cqXM1e_7Lorenzo6my_matINtB2_6MatrixfE4dimsB4_
FN:78,_RNvMNtCs7uYp9cqXM1e_7Lorenzo6my_matINtB2_6MatrixlE10data_cloneB4_
FN:40,_RNvMNtCs7uYp9cqXM1e_7Lorenzo6my_matINtB2_6MatrixlE10index_flatB4_
FN:65,_RNvMNtCs7uYp9cqXM1e_7Lorenzo6my_matINtB2_6MatrixlE11linear_iterB4_
FN:131,_RNvMNtCs7uYp9cqXM1e_7Lorenzo6my_matINtB2_6MatrixlE19format_nd_recursiveB4_
FN:55,_RNvMNtCs7uYp9cqXM1e_7Lorenzo6my_matINtB2_6MatrixlE3getB4_
FN:70,_RNvMNtCs7uYp9cqXM1e_7Lorenzo6my_matINtB2_6MatrixlE3lenB4_
FN:18,_RNvMNtCs7uYp9cqXM1e_7Lorenzo6my_matINtB2_6MatrixlE3newB4_
FN:35,_RNvMNtCs7uYp9cqXM1e_7Lorenzo6my_matINtB2_6MatrixlE4dimsB4_
FN:60,_RNvMNtCs7uYp9cqXM1e_7Lorenzo6my_matINtB2_6MatrixlE7get_mutB4_
FN:74,_RNvMNtCs7uYp9cqXM1e_7Lorenzo6my_matINtB2_6MatrixlE9is_squareB4_
FN:366,_RNvMsd_NtCs7uYp9cqXM1e_7Lorenzo6my_matINtB5_6MatrixlE14from_vector_1dB7_
FN:353,_RNvMsd_NtCs7uYp9cqXM1e_7Lorenzo6my_matINtB5_6MatrixlE15from_vector_rowB7_
FN:379,_RNvMsd_NtCs7uYp9cqXM1e_7Lorenzo6my_matINtB5_6MatrixlE15try_from_vectorB7_
FN:181,_RNvNtCs7uYp9cqXM1e_7Lorenzo6my_mat15compute_strides
FN:196,_RNvXs_NtCs7uYp9cqXM1e_7Lorenzo6my_matINtB4_6MatrixINtCsjH9OezVP8vX_11num_complex7ComplexdEEINtNtNtCs1TsYZUjtjaA_4core3ops5index5IndexRSjE5indexB6_
FN:196,_RNvXs_NtCs7uYp9cqXM1e_7Lorenzo6my_matINtB4_6MatrixdEINtNtNtCs1TsYZUjtjaA_4core3ops5index5IndexRSjE5indexB6_
FN:196,_RNvXs_NtCs7uYp9cqXM1e_7Lorenzo6my_matINtB4_6MatrixlEINtNtNtCs1TsYZUjtjaA_4core3ops5index5IndexRSjE5indexB6_
FN:270,_RNvXsa_NtCs7uYp9cqXM1e_7Lorenzo6my_matdINtB5_6NesteddE12flatten_intoB7_
FN:267,_RNvXsa_NtCs7uYp9cqXM1e_7Lorenzo6my_matdINtB5_6NesteddE13shape_checkedB7_
FN:270,_RNvXsa_NtCs7uYp9cqXM1e_7Lorenzo6my_matlINtB5_6NestedlE12flatten_intoB7_
FN:267,_RNvXsa_NtCs7uYp9cqXM1e_7Lorenzo6my_matlINtB5_6NestedlE13shape_checkedB7_
FN:421,_RNvXsf_NtCs7uYp9cqXM1e_7Lorenzo6my_matINtB5_6MatrixlENtNtCs1TsYZUjtjaA_4core3fmt7Display3fmtB7_
FN:495,_RNvXsi_NtCs7uYp9cqXM1e_7Lorenzo6my_matQINtB5_6MatrixdENtNtNtNtCs1TsYZUjtjaA_4core4iter6traits7collect12IntoIterator9into_iterB7_
FN:398,_RNvMsd_NtCs7uYp9cqXM1e_7Lorenzo6my_matINtB5_6MatrixpE21from_vector_uncheckedB7_
FN:208,_RNvXININtCs7uYp9cqXM1e_7Lorenzo6my_mats0_0pEINtB5_6MatrixpEINtNtNtCs1TsYZUjtjaA_4core3ops5index8IndexMutRSjE9index_mutB7_
FN:222,_RNvXININtCs7uYp9cqXM1e_7Lorenzo6my_mats1_0pEINtB5_6MatrixpEINtNtNtCs1TsYZUjtjaA_4core3ops5index5IndexjE5indexB7_
FN:234,_RNvXININtCs7uYp9cqXM1e_7Lorenzo6my_mats2_0pEINtB5_6MatrixpEINtNtNtCs1TsYZUjtjaA_4core3ops5index8IndexMutjE9index_mutB7_
FN:410,_RNvXININtCs7uYp9cqXM1e_7Lorenzo6my_matse_0pEINtB5_6MatrixpEINtNtCs1TsYZUjtjaA_4core7convert4FromINtNtB7_7my_vect6VectorpEE4fromB7_
FN:472,_RNvXININtCs7uYp9cqXM1e_7Lorenzo6my_matsg_0pEINtB5_6MatrixpENtNtNtNtCs1TsYZUjtjaA_4core4iter6traits7collect12IntoIterator9into_iterB7_
FN:484,_RNvXININtCs7uYp9cqXM1e_7Lorenzo6my_matsh_0pERINtB5_6MatrixpENtNtNtNtCs1TsYZUjtjaA_4core4iter6traits7collect12IntoIterator9into_iterB7_
FN:270,_RNvXsa_NtCs7uYp9cqXM1e_7Lorenzo6my_matINtCsjH9OezVP8vX_11num_complex7ComplexdEINtB5_6NestedBA_E12flatten_intoB7_
FN:267,_RNvXsa_NtCs7uYp9cqXM1e_7Lorenzo6my_matINtCsjH9OezVP8vX_11num_complex7ComplexdEINtB5_6NestedBA_E13shape_checkedB7_
FN:519,_RNvNtNtCs7uYp9cqXM1e_7Lorenzo6my_mat5testss_17creates_1d_matrix
FN:552,_RNvNtNtCs7uYp9cqXM1e_7Lorenzo6my_mat5testss_17creates_3d_matrix
FN:628,_RNvNtNtCs7uYp9cqXM1e_7Lorenzo6my_mat5testss_17creates_4d_matrix
FN:669,_RNvNtNtCs7uYp9cqXM1e_7Lorenzo6my_mat5testss_17creates_5d_matrix
FN:596,_RNvNtNtCs7uYp9cqXM1e_7Lorenzo6my_mat5testss_21empty_inner_dimension
FN:589,_RNvNtNtCs7uYp9cqXM1e_7Lorenzo6my_mat5testss_21empty_outer_dimension
FN:705,_RNvNtNtCs7uYp9cqXM1e_7Lorenzo6my_mat5testss_22test_1d_matrix_display
FN:712,_RNvNtNtCs7uYp9cqXM1e_7Lorenzo6my_mat5testss_22test_2d_matrix_display
FN:618,_RNvNtNtCs7uYp9cqXM1e_7Lorenzo6my_mat5testss_24supports_complex_scalars
FN:719,_RNvNtNtCs7uYp9cqXM1e_7Lorenzo6my_mat5testss_25test_empty_matrix_display
FN:753,_RNvNtNtCs7uYp9cqXM1e_7Lorenzo6my_mat5testss_25test_write_display_format
FN:604,_RNvNtNtCs7uYp9cqXM1e_7Lorenzo6my_mat5testss_29irregular_siblings_return_err
FN:612,_RNvNtNtCs7uYp9cqXM1e_7Lorenzo6my_mat5testss_29unchecked_panics_on_irregular
FN:727,_RNvNtNtCs7uYp9cqXM1e_7Lorenzo6my_mat5testss_32test_matrix_from_vector_examples
FN:780,_RNvNtNtCs7uYp9cqXM1e_7Lorenzo6my_mat5testss_38test_write_display_format_panics_on_3d
FN:529,_RNvNtNtCs7uYp9cqXM1e_7Lorenzo6my_mat5testss_40creates_2d_matrix_and_order_is_row_major
FNDA:1,_RNvXsb_NtCs7uYp9cqXM1e_7Lorenzo6my_matINtNtCsfKxrorEVQSK_5alloc3vec3VecIBB_IBB_IBB_lEEEEINtB5_6NestedlE12flatten_intoB7_
FNDA:1,_RNvXsb_NtCs7uYp9cqXM1e_7Lorenzo6my_matINtNtCsfKxrorEVQSK_5alloc3vec3VecIBB_IBB_IBB_lEEEEINtB5_6NestedlE13shape_checkedB7_
FNDA:6,_RNvXsb_NtCs7uYp9cqXM1e_7Lorenzo6my_matINtNtCsfKxrorEVQSK_5alloc3vec3VecIBB_IBB_lEEEINtB5_6NestedlE12flatten_intoB7_
FNDA:6,_RNvXsb_NtCs7uYp9cqXM1e_7Lorenzo6my_matINtNtCsfKxrorEVQSK_5alloc3vec3VecIBB_IBB_lEEEINtB5_6NestedlE13shape_checkedB7_
FNDA:5,_RNvXsb_NtCs7uYp9cqXM1e_7Lorenzo6my_matINtNtCsfKxrorEVQSK_5alloc3vec3VecIBB_INtCsjH9OezVP8vX_11num_complex7ComplexdEEEINtB5_6NestedB1b_E12flatten_intoB7_
FNDA:5,_RNvXsb_NtCs7uYp9cqXM1e_7Lorenzo6my_matINtNtCsfKxrorEVQSK_5alloc3vec3VecIBB_INtCsjH9OezVP8vX_11num_complex7ComplexdEEEINtB5_6NestedB1b_E13shape_checkedB7_
FNDA:55,_RNvXsb_NtCs7uYp9cqXM1e_7Lorenzo6my_matINtNtCsfKxrorEVQSK_5alloc3vec3VecIBB_dEEINtB5_6NesteddE12flatten_intoB7_
FNDA:55,_RNvXsb_NtCs7uYp9cqXM1e_7Lorenzo6my_matINtNtCsfKxrorEVQSK_5alloc3vec3VecIBB_dEEINtB5_6NesteddE13shape_checkedB7_
FNDA:41,_RNvXsb_NtCs7uYp9cqXM1e_7Lorenzo6my_matINtNtCsfKxrorEVQSK_5alloc3vec3VecIBB_lEEINtB5_6NestedlE12flatten_intoB7_
FNDA:43,_RNvXsb_NtCs7uYp9cqXM1e_7Lorenzo6my_matINtNtCsfKxrorEVQSK_5alloc3vec3VecIBB_lEEINtB5_6NestedlE13shape_checkedB7_
FNDA:11,_RNvXsb_NtCs7uYp9cqXM1e_7Lorenzo6my_matINtNtCsfKxrorEVQSK_5alloc3vec3VecINtCsjH9OezVP8vX_11num_complex7ComplexdEEINtB5_6NestedB17_E12flatten_intoB7_
FNDA:11,_RNvXsb_NtCs7uYp9cqXM1e_7Lorenzo6my_matINtNtCsfKxrorEVQSK_5alloc3vec3VecINtCsjH9OezVP8vX_11num_complex7ComplexdEEINtB5_6NestedB17_E13shape_checkedB7_
FNDA:118,_RNvXsb_NtCs7uYp9cqXM1e_7Lorenzo6my_matINtNtCsfKxrorEVQSK_5alloc3vec3VecdEINtB5_6NesteddE12flatten_intoB7_
FNDA:118,_RNvXsb_NtCs7uYp9cqXM1e_7Lorenzo6my_matINtNtCsfKxrorEVQSK_5alloc3vec3VecdEINtB5_6NesteddE13shape_checkedB7_
FNDA:112,_RNvXsb_NtCs7uYp9cqXM1e_7Lorenzo6my_matINtNtCsfKxrorEVQSK_5alloc3vec3VeclEINtB5_6NestedlE12flatten_intoB7_
FNDA:116,_RNvXsb_NtCs7uYp9cqXM1e_7Lorenzo6my_matINtNtCsfKxrorEVQSK_5alloc3vec3VeclEINtB5_6NestedlE13shape_checkedB7_
FNDA:1,_RINvMNtCs7uYp9cqXM1e_7Lorenzo6my_matINtB3_6MatrixdE20write_display_formatReEB5_
FNDA:1,_RINvMNtCs7uYp9cqXM1e_7Lorenzo6my_matINtB3_6MatrixlE20write_display_formatReEB5_
FNDA:1,_RINvMsc_NtCs7uYp9cqXM1e_7Lorenzo6my_matINtB6_6MatrixINtCsjH9OezVP8vX_11num_complex7ComplexdEE15try_from_nestedINtNtCsfKxrorEVQSK_5alloc3vec3VecBO_EEB8_
FNDA:5,_RINvMsc_NtCs7uYp9cqXM1e_7Lorenzo6my_matINtB6_6MatrixINtCsjH9OezVP8vX_11num_complex7ComplexdEE15try_from_nestedINtNtCsfKxrorEVQSK_5alloc3vec3VecIB1L_BO_EEEB8_
FNDA:55,_RINvMsc_NtCs7uYp9cqXM1e_7Lorenzo6my_matINtB6_6MatrixdE15try_from_nestedINtNtCsfKxrorEVQSK_5alloc3vec3VecIB18_dEEEB8_
FNDA:2,_RINvMsc_NtCs7uYp9cqXM1e_7Lorenzo6my_matINtB6_6MatrixdE15try_from_nestedINtNtCsfKxrorEVQSK_5alloc3vec3VecdEEB8_
FNDA:1,_RINvMsc_NtCs7uYp9cqXM1e_7Lorenzo6my_matINtB6_6MatrixlE15try_from_nestedINtNtCsfKxrorEVQSK_5alloc3vec3VecIB18_IB18_IB18_lEEEEEB8_
FNDA:4,_RINvMsc_NtCs7uYp9cqXM1e_7Lorenzo6my_matINtB6_6MatrixlE15try_from_nestedINtNtCsfKxrorEVQSK_5alloc3vec3VecIB18_IB18_lEEEEB8_
FNDA:31,_RINvMsc_NtCs7uYp9cqXM1e_7Lorenzo6my_matINtB6_6MatrixlE15try_from_nestedINtNtCsfKxrorEVQSK_5alloc3vec3VecIB18_lEEEB8_
FNDA:15,_RINvMsc_NtCs7uYp9cqXM1e_7Lorenzo6my_matINtB6_6MatrixlE15try_from_nestedINtNtCsfKxrorEVQSK_5alloc3vec3VeclEEB8_
FNDA:3,_RINvMsc_NtCs7uYp9cqXM1e_7Lorenzo6my_matINtB6_6MatrixlE21from_nested_uncheckedINtNtCsfKxrorEVQSK_5alloc3vec3VecIB1e_IB1e_lEEEEB8_
FNDA:12,_RINvMsc_NtCs7uYp9cqXM1e_7Lorenzo6my_matINtB6_6MatrixlE21from_nested_uncheckedINtNtCsfKxrorEVQSK_5alloc3vec3VecIB1e_lEEEB8_
FNDA:9,_RINvMsc_NtCs7uYp9cqXM1e_7Lorenzo6my_matINtB6_6MatrixlE21from_nested_uncheckedINtNtCsfKxrorEVQSK_5alloc3vec3VeclEEB8_
FNDA:73,_RNCNvMNtCs7uYp9cqXM1e_7Lorenzo6my_matINtB4_6MatrixINtCsjH9OezVP8vX_11num_complex7ComplexdEE3get0B6_
FNDA:16,_RNCNvMNtCs7uYp9cqXM1e_7Lorenzo6my_matINtB4_6MatrixINtCsjH9OezVP8vX_11num_complex7ComplexdEE7get_mut0B6_
FNDA:1,_RNCNvMNtCs7uYp9cqXM1e_7Lorenzo6my_matINtB4_6MatrixINtCsjH9OezVP8vX_11num_complex7ComplexfEE3get0B6_
FNDA:409,_RNCNvMNtCs7uYp9cqXM1e_7Lorenzo6my_matINtB4_6MatrixdE3get0B6_
FNDA:232,_RNCNvMNtCs7uYp9cqXM1e_7Lorenzo6my_matINtB4_6MatrixdE7get_mut0B6_
FNDA:4,_RNCNvMNtCs7uYp9cqXM1e_7Lorenzo6my_matINtB4_6MatrixfE3get0B6_
FNDA:568,_RNCNvMNtCs7uYp9cqXM1e_7Lorenzo6my_matINtB4_6MatrixlE3get0B6_
FNDA:17,_RNCNvMNtCs7uYp9cqXM1e_7Lorenzo6my_matINtB4_6MatrixlE7get_mut0B6_
FNDA:0,_RNvMNtCs7uYp9cqXM1e_7Lorenzo6my_matINtB2_6MatrixINtCsjH9OezVP8vX_11num_complex7ComplexdEE10data_cloneB4_
FNDA:93,_RNvMNtCs7uYp9cqXM1e_7Lorenzo6my_matINtB2_6MatrixINtCsjH9OezVP8vX_11num_complex7ComplexdEE10index_flatB4_
FNDA:73,_RNvMNtCs7uYp9cqXM1e_7Lorenzo6my_matINtB2_6MatrixINtCsjH9OezVP8vX_11num_complex7ComplexdEE3getB4_
FNDA:1,_RNvMNtCs7uYp9cqXM1e_7Lorenzo6my_matINtB2_6MatrixINtCsjH9OezVP8vX_11num_complex7ComplexdEE3lenB4_
FNDA:5,_RNvMNtCs7uYp9cqXM1e_7Lorenzo6my_matINtB2_6MatrixINtCsjH9OezVP8vX_11num_complex7ComplexdEE3newB4_
FNDA:14,_RNvMNtCs7uYp9cqXM1e_7Lorenzo6my_matINtB2_6MatrixINtCsjH9OezVP8vX_11num_complex7ComplexdEE4dimsB4_
FNDA:16,_RNvMNtCs7uYp9cqXM1e_7Lorenzo6my_matINtB2_6MatrixINtCsjH9OezVP8vX_11num_complex7ComplexdEE7get_mutB4_
FNDA:2,_RNvMNtCs7uYp9cqXM1e_7Lorenzo6my_matINtB2_6MatrixINtCsjH9OezVP8vX_11num_complex7ComplexdEE9is_squareB4_
FNDA:1,_RNvMNtCs7uYp9cqXM1e_7Lorenzo6my_matINtB2_6MatrixINtCsjH9OezVP8vX_11num_complex7ComplexfEE10index_flatB4_
FNDA:1,_RNvMNtCs7uYp9cqXM1e_7Lorenzo6my_matINtB2_6MatrixINtCsjH9OezVP8vX_11num_complex7ComplexfEE3getB4_
FNDA:1,_RNvMNtCs7uYp9cqXM1e_7Lorenzo6my_matINtB2_6MatrixINtCsjH9OezVP8vX_11num_complex7ComplexfEE3newB4_
FNDA:1,_RNvMNtCs7uYp9cqXM1e_7Lorenzo6my_matINtB2_6MatrixINtCsjH9OezVP8vX_11num_complex7ComplexfEE4dimsB4_
FNDA:1013,_RNvMNtCs7uYp9cqXM1e_7Lorenzo6my_matINtB2_6MatrixdE10index_flatB4_
FNDA:28,_RNvMNtCs7uYp9cqXM1e_7Lorenzo6my_matINtB2_6MatrixdE11linear_iterB4_
FNDA:409,_RNvMNtCs7uYp9cqXM1e_7Lorenzo6my_matINtB2_6MatrixdE3getB4_
FNDA:17,_RNvMNtCs7uYp9cqXM1e_7Lorenzo6my_matINtB2_6MatrixdE3newB4_
FNDA:187,_RNvMNtCs7uYp9cqXM1e_7Lorenzo6my_matINtB2_6MatrixdE4dimsB4_
FNDA:232,_RNvMNtCs7uYp9cqXM1e_7Lorenzo6my_matINtB2_6MatrixdE7get_mutB4_
FNDA:5,_RNvMNtCs7uYp9cqXM1e_7Lorenzo6my_matINtB2_6MatrixdE9is_squareB4_
FNDA:4,_RNvMNtCs7uYp9cqXM1e_7Lorenzo6my_matINtB2_6MatrixfE10index_flatB4_
FNDA:4,_RNvMNtCs7uYp9cqXM1e_7Lorenzo6my_matINtB2_6MatrixfE3getB4_
FNDA:1,_RNvMNtCs7uYp9cqXM1e_7Lorenzo6my_matINtB2_6MatrixfE3newB4_
FNDA:1,_RNvMNtCs7uYp9cqXM1e_7Lorenzo6my_matINtB2_6MatrixfE4dimsB4_
FNDA:2,_RNvMNtCs7uYp9cqXM1e_7Lorenzo6my_matINtB2_6MatrixlE10data_cloneB4_
FNDA:660,_RNvMNtCs7uYp9cqXM1e_7Lorenzo6my_matINtB2_6MatrixlE10index_flatB4_
FNDA:7,_RNvMNtCs7uYp9cqXM1e_7Lorenzo6my_matINtB2_6MatrixlE11linear_iterB4_
FNDA:25,_RNvMNtCs7uYp9cqXM1e_7Lorenzo6my_matINtB2_6MatrixlE19format_nd_recursiveB4_
FNDA:573,_RNvMNtCs7uYp9cqXM1e_7Lorenzo6my_matINtB2_6MatrixlE3getB4_
FNDA:5,_RNvMNtCs7uYp9cqXM1e_7Lorenzo6my_matINtB2_6MatrixlE3lenB4_
FNDA:26,_RNvMNtCs7uYp9cqXM1e_7Lorenzo6my_matINtB2_6MatrixlE3newB4_
FNDA:115,_RNvMNtCs7uYp9cqXM1e_7Lorenzo6my_matINtB2_6MatrixlE4dimsB4_
FNDA:17,_RNvMNtCs7uYp9cqXM1e_7Lorenzo6my_matINtB2_6MatrixlE7get_mutB4_
FNDA:5,_RNvMNtCs7uYp9cqXM1e_7Lorenzo6my_matINtB2_6MatrixlE9is_squareB4_
FNDA:1,_RNvMsd_NtCs7uYp9cqXM1e_7Lorenzo6my_matINtB5_6MatrixlE14from_vector_1dB7_
FNDA:1,_RNvMsd_NtCs7uYp9cqXM1e_7Lorenzo6my_matINtB5_6MatrixlE15from_vector_rowB7_
FNDA:2,_RNvMsd_NtCs7uYp9cqXM1e_7Lorenzo6my_matINtB5_6MatrixlE15try_from_vectorB7_
FNDA:166,_RNvNtCs7uYp9cqXM1e_7Lorenzo6my_mat15compute_strides
FNDA:4,_RNvXs_NtCs7uYp9cqXM1e_7Lorenzo6my_matINtB4_6MatrixINtCsjH9OezVP8vX_11num_complex7ComplexdEEINtNtNtCs1TsYZUjtjaA_4core3ops5index5IndexRSjE5indexB6_
FNDA:372,_RNvXs_NtCs7uYp9cqXM1e_7Lorenzo6my_matINtB4_6MatrixdEINtNtNtCs1TsYZUjtjaA_4core3ops5index5IndexRSjE5indexB6_
FNDA:70,_RNvXs_NtCs7uYp9cqXM1e_7Lorenzo6my_matINtB4_6MatrixlEINtNtNtCs1TsYZUjtjaA_4core3ops5index5IndexRSjE5indexB6_
FNDA:285,_RNvXsa_NtCs7uYp9cqXM1e_7Lorenzo6my_matdINtB5_6NesteddE12flatten_intoB7_
FNDA:285,_RNvXsa_NtCs7uYp9cqXM1e_7Lorenzo6my_matdINtB5_6NesteddE13shape_checkedB7_
FNDA:318,_RNvXsa_NtCs7uYp9cqXM1e_7Lorenzo6my_matlINtB5_6NestedlE12flatten_intoB7_
FNDA:324,_RNvXsa_NtCs7uYp9cqXM1e_7Lorenzo6my_matlINtB5_6NestedlE13shape_checkedB7_
FNDA:10,_RNvXsf_NtCs7uYp9cqXM1e_7Lorenzo6my_matINtB5_6MatrixlENtNtCs1TsYZUjtjaA_4core3fmt7Display3fmtB7_
FNDA:2,_RNvXsi_NtCs7uYp9cqXM1e_7Lorenzo6my_matQINtB5_6MatrixdENtNtNtNtCs1TsYZUjtjaA_4core4iter6traits7collect12IntoIterator9into_iterB7_
FNDA:0,_RNvMsd_NtCs7uYp9cqXM1e_7Lorenzo6my_matINtB5_6MatrixpE21from_vector_uncheckedB7_
FNDA:0,_RNvXININtCs7uYp9cqXM1e_7Lorenzo6my_mats0_0pEINtB5_6MatrixpEINtNtNtCs1TsYZUjtjaA_4core3ops5index8IndexMutRSjE9index_mutB7_
FNDA:0,_RNvXININtCs7uYp9cqXM1e_7Lorenzo6my_mats1_0pEINtB5_6MatrixpEINtNtNtCs1TsYZUjtjaA_4core3ops5index5IndexjE5indexB7_
FNDA:0,_RNvXININtCs7uYp9cqXM1e_7Lorenzo6my_mats2_0pEINtB5_6MatrixpEINtNtNtCs1TsYZUjtjaA_4core3ops5index8IndexMutjE9index_mutB7_
FNDA:0,_RNvXININtCs7uYp9cqXM1e_7Lorenzo6my_matse_0pEINtB5_6MatrixpEINtNtCs1TsYZUjtjaA_4core7convert4FromINtNtB7_7my_vect6VectorpEE4fromB7_
FNDA:0,_RNvXININtCs7uYp9cqXM1e_7Lorenzo6my_matsg_0pEINtB5_6MatrixpENtNtNtNtCs1TsYZUjtjaA_4core4iter6traits7collect12IntoIterator9into_iterB7_
FNDA:0,_RNvXININtCs7uYp9cqXM1e_7Lorenzo6my_matsh_0pERINtB5_6MatrixpENtNtNtNtCs1TsYZUjtjaA_4core4iter6traits7collect12IntoIterator9into_iterB7_
FNDA:22,_RNvXsa_NtCs7uYp9cqXM1e_7Lorenzo6my_matINtCsjH9OezVP8vX_11num_complex7ComplexdEINtB5_6NestedBA_E12flatten_intoB7_
FNDA:22,_RNvXsa_NtCs7uYp9cqXM1e_7Lorenzo6my_matINtCsjH9OezVP8vX_11num_complex7ComplexdEINtB5_6NestedBA_E13shape_checkedB7_
FNDA:1,_RNvNtNtCs7uYp9cqXM1e_7Lorenzo6my_mat5testss_17creates_1d_matrix
FNDA:1,_RNvNtNtCs7uYp9cqXM1e_7Lorenzo6my_mat5testss_17creates_3d_matrix
FNDA:1,_RNvNtNtCs7uYp9cqXM1e_7Lorenzo6my_mat5testss_17creates_4d_matrix
FNDA:1,_RNvNtNtCs7uYp9cqXM1e_7Lorenzo6my_mat5testss_17creates_5d_matrix
FNDA:1,_RNvNtNtCs7uYp9cqXM1e_7Lorenzo6my_mat5testss_21empty_inner_dimension
FNDA:1,_RNvNtNtCs7uYp9cqXM1e_7Lorenzo6my_mat5testss_21empty_outer_dimension
FNDA:1,_RNvNtNtCs7uYp9cqXM1e_7Lorenzo6my_mat5testss_22test_1d_matrix_display
FNDA:1,_RNvNtNtCs7uYp9cqXM1e_7Lorenzo6my_mat5testss_22test_2d_matrix_display
FNDA:1,_RNvNtNtCs7uYp9cqXM1e_7Lorenzo6my_mat5testss_24supports_complex_scalars
FNDA:1,_RNvNtNtCs7uYp9cqXM1e_7Lorenzo6my_mat5testss_25test_empty_matrix_display
FNDA:1,_RNvNtNtCs7uYp9cqXM1e_7Lorenzo6my_mat5testss_25test_write_display_format
FNDA:1,_RNvNtNtCs7uYp9cqXM1e_7Lorenzo6my_mat5testss_29irregular_siblings_return_err
FNDA:1,_RNvNtNtCs7uYp9cqXM1e_7Lorenzo6my_mat5testss_29unchecked_panics_on_irregular
FNDA:1,_RNvNtNtCs7uYp9cqXM1e_7Lorenzo6my_mat5testss_32test_matrix_from_vector_examples
FNDA:1,_RNvNtNtCs7uYp9cqXM1e_7Lorenzo6my_mat5testss_38test_write_display_format_panics_on_3d
FNDA:1,_RNvNtNtCs7uYp9cqXM1e_7Lorenzo6my_mat5testss_40creates_2d_matrix_and_order_is_row_major
FNF:49
FNH:42
DA:18,50
DA:19,50
DA:20,50
DA:21,50
DA:23,0
DA:26,50
DA:27,50
DA:28,50
DA:29,50
DA:30,50
DA:31,50
DA:32,50
DA:35,318
DA:36,318
DA:37,318
DA:40,1771
DA:41,1771
DA:42,0
DA:43,1771
DA:44,1771
DA:45,3867
DA:46,3867
DA:47,5
DA:48,3862
DA:49,3862
DA:51,1766
DA:52,1771
DA:55,1060
DA:56,1060
DA:57,1060
DA:60,265
DA:61,265
DA:62,265
DA:65,35
DA:66,35
DA:67,35
DA:70,6
DA:71,6
DA:72,6
DA:74,12
DA:75,12
DA:76,12
DA:78,2
DA:79,2
DA:80,2
DA:82,2
DA:83,2
DA:93,2
DA:94,2
DA:95,2
DA:99,2
DA:100,1
DA:101,1
DA:103,1
DA:104,1
DA:106,1
DA:109,3
DA:110,6
DA:111,6
DA:112,6
DA:114,6
DA:115,6
DA:117,0
DA:119,6
DA:120,3
DA:121,3
DA:122,0
DA:124,3
DA:127,1
DA:128,1
DA:131,25
DA:132,25
DA:133,25
DA:134,25
DA:135,25
DA:136,25
DA:137,25
DA:138,25
DA:140,25
DA:141,25
DA:143,14
DA:144,14
DA:145,14
DA:146,30
DA:147,30
DA:148,16
DA:149,14
DA:150,30
DA:151,72
DA:152,72
DA:153,42
DA:154,30
DA:155,72
DA:156,72
DA:157,72
DA:158,72
DA:159,72
DA:160,0
DA:162,30
DA:164,14
DA:167,11
DA:168,22
DA:169,22
DA:170,11
DA:171,11
DA:172,22
DA:173,22
DA:174,22
DA:176,11
DA:178,25
DA:181,166
DA:182,166
DA:183,166
DA:184,166
DA:185,323
DA:186,323
DA:187,323
DA:188,323
DA:189,166
DA:190,166
DA:196,446
DA:197,446
DA:198,446
DA:199,0
DA:204,446
DA:208,0
DA:209,0
DA:210,0
DA:211,0
DA:216,0
DA:222,0
DA:223,0
DA:224,0
DA:226,0
DA:228,0
DA:229,0
DA:230,0
DA:234,0
DA:235,0
DA:236,0
DA:238,0
DA:240,0
DA:241,0
DA:242,0
DA:267,631
DA:268,631
DA:269,631
DA:270,625
DA:271,625
DA:272,625
DA:279,355
DA:280,355
DA:282,5
DA:283,350
DA:284,350
DA:285,522
DA:286,522
DA:287,522
DA:288,2
DA:289,2
DA:290,2
DA:291,2
DA:292,520
DA:294,348
DA:295,348
DA:296,348
DA:297,348
DA:298,355
DA:300,349
DA:301,862
DA:302,862
DA:303,862
DA:304,349
DA:311,114
DA:312,114
DA:313,114
DA:315,114
DA:316,112
DA:317,112
DA:318,112
DA:319,112
DA:320,0
DA:321,0
DA:322,0
DA:323,0
DA:324,0
DA:325,112
DA:326,112
DA:327,112
DA:328,112
DA:329,112
DA:330,112
DA:331,112
DA:332,114
DA:334,24
DA:335,24
DA:336,24
DA:338,24
DA:339,23
DA:340,1
DA:342,23
DA:353,1
DA:354,1
DA:355,1
DA:356,1
DA:357,1
DA:358,1
DA:359,1
DA:360,1
DA:361,1
DA:362,1
DA:363,1
DA:366,1
DA:367,1
DA:368,1
DA:369,1
DA:370,1
DA:371,1
DA:372,1
DA:373,1
DA:374,1
DA:375,1
DA:376,1
DA:379,2
DA:380,2
DA:381,2
DA:382,2
DA:383,2
DA:384,0
DA:385,0
DA:386,0
DA:387,0
DA:388,2
DA:389,2
DA:390,2
DA:391,2
DA:392,2
DA:393,2
DA:394,2
DA:395,2
DA:398,0
DA:399,0
DA:400,0
DA:401,0
DA:403,0
DA:410,0
DA:411,0
DA:412,0
DA:421,10
DA:422,10
DA:423,10
DA:424,0
DA:426,3
DA:427,10
DA:428,10
DA:429,8
DA:430,2
DA:431,10
DA:432,10
DA:433,0
DA:435,3
DA:438,4
DA:439,4
DA:440,8
DA:441,8
DA:442,4
DA:443,4
DA:444,8
DA:445,22
DA:446,22
DA:447,14
DA:448,8
DA:449,22
DA:450,22
DA:451,0
DA:453,8
DA:455,4
DA:459,3
DA:462,10
DA:472,0
DA:473,0
DA:474,0
DA:484,0
DA:485,0
DA:486,0
DA:495,2
DA:496,2
DA:497,2
DA:519,1
DA:520,1
DA:521,1
DA:522,1
DA:523,1
DA:524,1
DA:525,1
DA:526,1
DA:529,1
DA:531,1
DA:532,1
DA:533,1
DA:536,1
DA:537,1
DA:538,1
DA:539,1
DA:542,1
DA:543,3
DA:544,6
DA:545,6
DA:546,6
DA:548,1
DA:549,1
DA:552,1
DA:553,1
DA:554,1
DA:555,1
DA:557,1
DA:558,2
DA:559,2
DA:560,6
DA:561,6
DA:562,24
DA:563,24
DA:564,24
DA:565,6
DA:567,2
DA:569,1
DA:570,1
DA:572,1
DA:573,1
DA:574,1
DA:575,1
DA:576,1
DA:577,1
DA:580,1
DA:582,1
DA:583,1
DA:584,1
DA:585,1
DA:586,1
DA:589,1
DA:590,1
DA:591,1
DA:592,1
DA:593,1
DA:596,1
DA:597,1
DA:598,1
DA:599,1
DA:600,1
DA:601,1
DA:604,1
DA:605,1
DA:606,1
DA:607,1
DA:608,1
DA:612,1
DA:613,1
DA:614,1
DA:615,1
DA:618,1
DA:620,1
DA:621,1
DA:622,1
DA:623,1
DA:624,1
DA:625,1
DA:628,1
DA:630,1
DA:631,1
DA:632,1
DA:633,1
DA:635,1
DA:636,2
DA:637,2
DA:638,4
DA:639,4
DA:640,8
DA:641,8
DA:642,16
DA:643,16
DA:644,16
DA:645,8
DA:647,4
DA:649,2
DA:652,1
DA:653,1
DA:656,1
DA:657,1
DA:658,1
DA:659,1
DA:662,1
DA:663,1
DA:664,1
DA:665,1
DA:666,1
DA:669,1
DA:671,1
DA:672,1
DA:675,2
DA:676,4
DA:677,8
DA:678,16
DA:679,32
DA:680,32
DA:681,32
DA:682,32
DA:683,32
DA:684,32
DA:690,1
DA:691,1
DA:694,1
DA:695,1
DA:696,1
DA:699,1
DA:700,1
DA:701,1
DA:702,1
DA:705,1
DA:706,1
DA:707,1
DA:708,1
DA:709,1
DA:712,1
DA:713,1
DA:714,1
DA:715,1
DA:716,1
DA:719,1
DA:721,1
DA:722,1
DA:723,1
DA:724,1
DA:727,1
DA:729,1
DA:732,1
DA:733,1
DA:734,1
DA:737,1
DA:738,1
DA:739,1
DA:742,1
DA:743,1
DA:744,1
DA:747,1
DA:748,1
DA:749,1
DA:750,1
DA:753,1
DA:759,1
DA:761,1
DA:762,1
DA:764,1
DA:765,1
DA:766,1
DA:772,1
DA:775,1
DA:776,1
DA:780,1
DA:781,1
DA:782,1
DA:783,1
BRDA:41,0,0,0
BRDA:41,0,1,1771
BRDA:46,0,0,5
BRDA:46,0,1,3862
BRDA:75,0,0,12
BRDA:75,0,1,0
BRDA:99,0,0,1
BRDA:99,0,1,1
BRDA:111,0,0,6
BRDA:111,0,1,0
BRDA:114,0,0,6
BRDA:114,0,1,0
BRDA:114,1,2,6
BRDA:114,1,3,0
BRDA:114,2,4,6
BRDA:114,2,5,0
BRDA:119,0,0,3
BRDA:119,0,1,3
BRDA:141,0,0,14
BRDA:141,0,1,11
BRDA:147,0,0,16
BRDA:147,0,1,14
BRDA:152,0,0,42
BRDA:152,0,1,30
BRDA:158,0,0,72
BRDA:158,0,1,0
BRDA:169,0,0,11
BRDA:169,0,1,11
BRDA:280,0,0,5
BRDA:280,0,1,350
BRDA:287,0,0,2
BRDA:287,0,1,520
BRDA:319,0,0,0
BRDA:319,0,1,112
BRDA:383,0,0,0
BRDA:383,0,1,2
BRDA:428,0,0,8
BRDA:428,0,1,2
BRDA:431,0,0,10
BRDA:431,0,1,0
BRDA:441,0,0,4
BRDA:441,0,1,4
BRDA:446,0,0,14
BRDA:446,0,1,8
BRDA:449,0,0,22
BRDA:449,0,1,0
BRF:46
BRH:34
LF:463
LH:411
end_of_record
SF:/home/runner/work/matrix/matrix/Lorenzo/src/my_vect.rs
FN:318,_RNvNtNtCs7uYp9cqXM1e_7Lorenzo7my_vect5testss_10vector_get
FN:227,_RNvNtNtCs7uYp9cqXM1e_7Lorenzo7my_vect5testss_11vector_iter
FN:240,_RNvNtNtCs7uYp9cqXM1e_7Lorenzo7my_vect5testss_12vector_debug
FN:257,_RNvNtNtCs7uYp9cqXM1e_7Lorenzo7my_vect5testss_12vector_index
FN:326,_RNvNtNtCs7uYp9cqXM1e_7Lorenzo7my_vect5testss_13vector_resize
FN:338,_RNvNtNtCs7uYp9cqXM1e_7Lorenzo7my_vect5testss_14vector_complex
FN:197,_RNvNtNtCs7uYp9cqXM1e_7Lorenzo7my_vect5testss_14vector_default
FN:234,_RNvNtNtCs7uYp9cqXM1e_7Lorenzo7my_vect5testss_14vector_display
FN:265,_RNvNtNtCs7uYp9cqXM1e_7Lorenzo7my_vect5testss_16vector_index_mut
FN:297,_RNvNtNtCs7uYp9cqXM1e_7Lorenzo7my_vect5testss_16vector_insert_at
FN:307,_RNvNtNtCs7uYp9cqXM1e_7Lorenzo7my_vect5testss_16vector_remove_at
FN:203,_RNvNtNtCs7uYp9cqXM1e_7Lorenzo7my_vect5testss_17vector_from_array
FN:248,_RNvNtNtCs7uYp9cqXM1e_7Lorenzo7my_vect5testss_17vector_partial_eq
FN:211,_RNvNtNtCs7uYp9cqXM1e_7Lorenzo7my_vect5testss_18vector_from_matrix
FN:272,_RNvNtNtCs7uYp9cqXM1e_7Lorenzo7my_vect5testss_20vector_into_iterator
FN:220,_RNvNtNtCs7uYp9cqXM1e_7Lorenzo7my_vect5testss_23vector_len_and_as_slice
FN:190,_RNvNtNtCs7uYp9cqXM1e_7Lorenzo7my_vect5testss_23vector_new_and_into_vec
FN:286,_RNvNtNtCs7uYp9cqXM1e_7Lorenzo7my_vect5testss_24vector_into_iterator_mut
FN:279,_RNvNtNtCs7uYp9cqXM1e_7Lorenzo7my_vect5testss_24vector_into_iterator_ref
FN:17,_RNvMNtCs7uYp9cqXM1e_7Lorenzo7my_vectINtB2_6VectordE8into_vecB4_
FN:13,_RNvMNtCs7uYp9cqXM1e_7Lorenzo7my_vectINtB2_6VectorlE3newB4_
FN:17,_RNvMNtCs7uYp9cqXM1e_7Lorenzo7my_vectINtB2_6VectorlE8into_vecB4_
FN:57,_RNvMs3_NtCs7uYp9cqXM1e_7Lorenzo7my_vectINtB5_6VectorINtCsjH9OezVP8vX_11num_complex7ComplexdEE3lenB7_
FN:57,_RNvMs3_NtCs7uYp9cqXM1e_7Lorenzo7my_vectINtB5_6VectorINtCsjH9OezVP8vX_11num_complex7ComplexfEE3lenB7_
FN:62,_RNvMs3_NtCs7uYp9cqXM1e_7Lorenzo7my_vectINtB5_6VectorINtCsjH9OezVP8vX_11num_complex7ComplexfEE8as_sliceB7_
FN:57,_RNvMs3_NtCs7uYp9cqXM1e_7Lorenzo7my_vectINtB5_6VectordE3lenB7_
FN:62,_RNvMs3_NtCs7uYp9cqXM1e_7Lorenzo7my_vectINtB5_6VectordE8as_sliceB7_
FN:57,_RNvMs3_NtCs7uYp9cqXM1e_7Lorenzo7my_vectINtB5_6VectorfE3lenB7_
FN:62,_RNvMs3_NtCs7uYp9cqXM1e_7Lorenzo7my_vectINtB5_6VectorfE8as_sliceB7_
FN:57,_RNvMs3_NtCs7uYp9cqXM1e_7Lorenzo7my_vectINtB5_6VectorlE3lenB7_
FN:62,_RNvMs3_NtCs7uYp9cqXM1e_7Lorenzo7my_vectINtB5_6VectorlE8as_sliceB7_
FN:71,_RNvMs4_NtCs7uYp9cqXM1e_7Lorenzo7my_vectINtB5_6VectordE4iterB7_
FN:71,_RNvMs4_NtCs7uYp9cqXM1e_7Lorenzo7my_vectINtB5_6VectorfE4iterB7_
FN:71,_RNvMs4_NtCs7uYp9cqXM1e_7Lorenzo7my_vectINtB5_6VectorlE4iterB7_
FN:164,_RNvMsd_NtCs7uYp9cqXM1e_7Lorenzo7my_vectINtB5_6VectorlE9insert_atB7_
FN:167,_RNvMsd_NtCs7uYp9cqXM1e_7Lorenzo7my_vectINtB5_6VectorlE9remove_atB7_
FN:173,_RNvMse_NtCs7uYp9cqXM1e_7Lorenzo7my_vectINtB5_6VectordE3getB7_
FN:176,_RNvMse_NtCs7uYp9cqXM1e_7Lorenzo7my_vectINtB5_6VectordE6resizeB7_
FN:173,_RNvMse_NtCs7uYp9cqXM1e_7Lorenzo7my_vectINtB5_6VectorfE3getB7_
FN:173,_RNvMse_NtCs7uYp9cqXM1e_7Lorenzo7my_vectINtB5_6VectorlE3getB7_
FN:176,_RNvMse_NtCs7uYp9cqXM1e_7Lorenzo7my_vectINtB5_6VectorlE6resizeB7_
FN:32,_RNvXs0_NtCs7uYp9cqXM1e_7Lorenzo7my_vectINtB5_6VectorINtCsjH9OezVP8vX_11num_complex7ComplexdEEINtNtCs1TsYZUjtjaA_4core7convert4FromINtNtCsfKxrorEVQSK_5alloc3vec3VecBO_EE4fromB7_
FN:32,_RNvXs0_NtCs7uYp9cqXM1e_7Lorenzo7my_vectINtB5_6VectorINtCsjH9OezVP8vX_11num_complex7ComplexfEEINtNtCs1TsYZUjtjaA_4core7convert4FromINtNtCsfKxrorEVQSK_5alloc3vec3VecBO_EE4fromB7_
FN:32,_RNvXs0_NtCs7uYp9cqXM1e_7Lorenzo7my_vectINtB5_6VectordEINtNtCs1TsYZUjtjaA_4core7convert4FromINtNtCsfKxrorEVQSK_5alloc3vec3VecdEE4fromB7_
FN:32,_RNvXs0_NtCs7uYp9cqXM1e_7Lorenzo7my_vectINtB5_6VectorfEINtNtCs1TsYZUjtjaA_4core7convert4FromINtNtCsfKxrorEVQSK_5alloc3vec3VecfEE4fromB7_
FN:32,_RNvXs0_NtCs7uYp9cqXM1e_7Lorenzo7my_vectINtB5_6VectorlEINtNtCs1TsYZUjtjaA_4core7convert4FromINtNtCsfKxrorEVQSK_5alloc3vec3VeclEE4fromB7_
FN:38,_RNvXs1_NtCs7uYp9cqXM1e_7Lorenzo7my_vectINtB5_6VectordEINtNtCs1TsYZUjtjaA_4core7convert4FromAdj3_E4fromB7_
FN:38,_RNvXs1_NtCs7uYp9cqXM1e_7Lorenzo7my_vectINtB5_6VectorfEINtNtCs1TsYZUjtjaA_4core7convert4FromAfj3_E4fromB7_
FN:38,_RNvXs1_NtCs7uYp9cqXM1e_7Lorenzo7my_vectINtB5_6VectorlEINtNtCs1TsYZUjtjaA_4core7convert4FromAlj4_E4fromB7_
FN:47,_RNvXs2_NtCs7uYp9cqXM1e_7Lorenzo7my_vectINtB5_6VectorlEINtNtCs1TsYZUjtjaA_4core7convert4FromINtNtB7_6my_mat6MatrixlEE4fromB7_
FN:81,_RNvXs5_NtCs7uYp9cqXM1e_7Lorenzo7my_vectINtB5_6VectorlENtNtCs1TsYZUjtjaA_4core3fmt7Display3fmtB7_
FN:97,_RNvXs6_NtCs7uYp9cqXM1e_7Lorenzo7my_vectINtB5_6VectordENtNtCs1TsYZUjtjaA_4core3fmt5Debug3fmtB7_
FN:97,_RNvXs6_NtCs7uYp9cqXM1e_7Lorenzo7my_vectINtB5_6VectorlENtNtCs1TsYZUjtjaA_4core3fmt5Debug3fmtB7_
FN:107,_RNvXs7_NtCs7uYp9cqXM1e_7Lorenzo7my_vectINtB5_6VectordENtNtCs1TsYZUjtjaA_4core3cmp9PartialEq2eqB7_
FN:107,_RNvXs7_NtCs7uYp9cqXM1e_7Lorenzo7my_vectINtB5_6VectorlENtNtCs1TsYZUjtjaA_4core3cmp9PartialEq2eqB7_
FN:113,_RNvXs8_NtCs7uYp9cqXM1e_7Lorenzo7my_vectINtB5_6VectordEINtNtNtCs1TsYZUjtjaA_4core3ops5index8IndexMutjE9index_mutB7_
FN:113,_RNvXs8_NtCs7uYp9cqXM1e_7Lorenzo7my_vectINtB5_6VectorlEINtNtNtCs1TsYZUjtjaA_4core3ops5index8IndexMutjE9index_mutB7_
FN:126,_RNvXs9_NtCs7uYp9cqXM1e_7Lorenzo7my_vectINtB5_6VectordENtNtNtNtCs1TsYZUjtjaA_4core4iter6traits7collect12IntoIterator9into_iterB7_
FN:126,_RNvXs9_NtCs7uYp9cqXM1e_7Lorenzo7my_vectINtB5_6VectorlENtNtNtNtCs1TsYZUjtjaA_4core4iter6traits7collect12IntoIterator9into_iterB7_
FN:26,_RNvXs_NtCs7uYp9cqXM1e_7Lorenzo7my_vectINtB4_6VectorlENtNtCs1TsYZUjtjaA_4core7default7Default7defaultB6_
FN:138,_RNvXsa_NtCs7uYp9cqXM1e_7Lorenzo7my_vectRINtB5_6VectordENtNtNtNtCs1TsYZUjtjaA_4core4iter6traits7collect12IntoIterator9into_iterB7_
FN:138,_RNvXsa_NtCs7uYp9cqXM1e_7Lorenzo7my_vectRINtB5_6VectorlENtNtNtNtCs1TsYZUjtjaA_4core4iter6traits7collect12IntoIterator9into_iterB7_
FN:150,_RNvXsb_NtCs7uYp9cqXM1e_7Lorenzo7my_vectQINtB5_6VectordENtNtNtNtCs1TsYZUjtjaA_4core4iter6traits7collect12IntoIterator9into_iterB7_
FN:150,_RNvXsb_NtCs7uYp9cqXM1e_7Lorenzo7my_vectQINtB5_6VectorlENtNtNtNtCs1TsYZUjtjaA_4core4iter6traits7collect12IntoIterator9into_iterB7_
FN:158,_RNvXsc_NtCs7uYp9cqXM1e_7Lorenzo7my_vectINtB5_6VectorINtCsjH9OezVP8vX_11num_complex7ComplexdEEINtNtNtCs1TsYZUjtjaA_4core3ops5index5IndexjE5indexB7_
FN:158,_RNvXsc_NtCs7uYp9cqXM1e_7Lorenzo7my_vectINtB5_6VectorINtCsjH9OezVP8vX_11num_complex7ComplexfEEINtNtNtCs1TsYZUjtjaA_4core3ops5index5IndexjE5indexB7_
FN:158,_RNvXsc_NtCs7uYp9cqXM1e_7Lorenzo7my_vectINtB5_6VectordEINtNtNtCs1TsYZUjtjaA_4core3ops5index5IndexjE5indexB7_
FN:158,_RNvXsc_NtCs7uYp9cqXM1e_7Lorenzo7my_vectINtB5_6VectorfEINtNtNtCs1TsYZUjtjaA_4core3ops5index5IndexjE5indexB7_
FN:158,_RNvXsc_NtCs7uYp9cqXM1e_7Lorenzo7my_vectINtB5_6VectorlEINtNtNtCs1TsYZUjtjaA_4core3ops5index5IndexjE5indexB7_
FNDA:1,_RNvNtNtCs7uYp9cqXM1e_7Lorenzo7my_vect5testss_10vector_get
FNDA:1,_RNvNtNtCs7uYp9cqXM1e_7Lorenzo7my_vect5testss_11vector_iter
FNDA:1,_RNvNtNtCs7uYp9cqXM1e_7Lorenzo7my_vect5testss_12vector_debug
FNDA:1,_RNvNtNtCs7uYp9cqXM1e_7Lorenzo7my_vect5testss_12vector_index
FNDA:1,_RNvNtNtCs7uYp9cqXM1e_7Lorenzo7my_vect5testss_13vector_resize
FNDA:1,_RNvNtNtCs7uYp9cqXM1e_7Lorenzo7my_vect5testss_14vector_complex
FNDA:1,_RNvNtNtCs7uYp9cqXM1e_7Lorenzo7my_vect5testss_14vector_default
FNDA:1,_RNvNtNtCs7uYp9cqXM1e_7Lorenzo7my_vect5testss_14vector_display
FNDA:1,_RNvNtNtCs7uYp9cqXM1e_7Lorenzo7my_vect5testss_16vector_index_mut
FNDA:1,_RNvNtNtCs7uYp9cqXM1e_7Lorenzo7my_vect5testss_16vector_insert_at
FNDA:1,_RNvNtNtCs7uYp9cqXM1e_7Lorenzo7my_vect5testss_16vector_remove_at
FNDA:1,_RNvNtNtCs7uYp9cqXM1e_7Lorenzo7my_vect5testss_17vector_from_array
FNDA:1,_RNvNtNtCs7uYp9cqXM1e_7Lorenzo7my_vect5testss_17vector_partial_eq
FNDA:1,_RNvNtNtCs7uYp9cqXM1e_7Lorenzo7my_vect5testss_18vector_from_matrix
FNDA:1,_RNvNtNtCs7uYp9cqXM1e_7Lorenzo7my_vect5testss_20vector_into_iterator
FNDA:1,_RNvNtNtCs7uYp9cqXM1e_7Lorenzo7my_vect5testss_23vector_len_and_as_slice
FNDA:1,_RNvNtNtCs7uYp9cqXM1e_7Lorenzo7my_vect5testss_23vector_new_and_into_vec
FNDA:1,_RNvNtNtCs7uYp9cqXM1e_7Lorenzo7my_vect5testss_24vector_into_iterator_mut
FNDA:1,_RNvNtNtCs7uYp9cqXM1e_7Lorenzo7my_vect5testss_24vector_into_iterator_ref
FNDA:1,_RNvMNtCs7uYp9cqXM1e_7Lorenzo7my_vectINtB2_6VectordE8into_vecB4_
FNDA:1,_RNvMNtCs7uYp9cqXM1e_7Lorenzo7my_vectINtB2_6VectorlE3newB4_
FNDA:6,_RNvMNtCs7uYp9cqXM1e_7Lorenzo7my_vectINtB2_6VectorlE8into_vecB4_
FNDA:1,_RNvMs3_NtCs7uYp9cqXM1e_7Lorenzo7my_vectINtB5_6VectorINtCsjH9OezVP8vX_11num_complex7ComplexdEE3lenB7_
FNDA:14,_RNvMs3_NtCs7uYp9cqXM1e_7Lorenzo7my_vectINtB5_6VectorINtCsjH9OezVP8vX_11num_complex7ComplexfEE3lenB7_
FNDA:6,_RNvMs3_NtCs7uYp9cqXM1e_7Lorenzo7my_vectINtB5_6VectorINtCsjH9OezVP8vX_11num_complex7ComplexfEE8as_sliceB7_
FNDA:72,_RNvMs3_NtCs7uYp9cqXM1e_7Lorenzo7my_vectINtB5_6VectordE3lenB7_
FNDA:17,_RNvMs3_NtCs7uYp9cqXM1e_7Lorenzo7my_vectINtB5_6VectordE8as_sliceB7_
FNDA:35,_RNvMs3_NtCs7uYp9cqXM1e_7Lorenzo7my_vectINtB5_6VectorfE3lenB7_
FNDA:1,_RNvMs3_NtCs7uYp9cqXM1e_7Lorenzo7my_vectINtB5_6VectorfE8as_sliceB7_
FNDA:39,_RNvMs3_NtCs7uYp9cqXM1e_7Lorenzo7my_vectINtB5_6VectorlE3lenB7_
FNDA:2,_RNvMs3_NtCs7uYp9cqXM1e_7Lorenzo7my_vectINtB5_6VectorlE8as_sliceB7_
FNDA:6,_RNvMs4_NtCs7uYp9cqXM1e_7Lorenzo7my_vectINtB5_6VectordE4iterB7_
FNDA:11,_RNvMs4_NtCs7uYp9cqXM1e_7Lorenzo7my_vectINtB5_6VectorfE4iterB7_
FNDA:1,_RNvMs4_NtCs7uYp9cqXM1e_7Lorenzo7my_vectINtB5_6VectorlE4iterB7_
FNDA:1,_RNvMsd_NtCs7uYp9cqXM1e_7Lorenzo7my_vectINtB5_6VectorlE9insert_atB7_
FNDA:1,_RNvMsd_NtCs7uYp9cqXM1e_7Lorenzo7my_vectINtB5_6VectorlE9remove_atB7_
FNDA:16,_RNvMse_NtCs7uYp9cqXM1e_7Lorenzo7my_vectINtB5_6VectordE3getB7_
FNDA:4,_RNvMse_NtCs7uYp9cqXM1e_7Lorenzo7my_vectINtB5_6VectordE6resizeB7_
FNDA:26,_RNvMse_NtCs7uYp9cqXM1e_7Lorenzo7my_vectINtB5_6VectorfE3getB7_
FNDA:57,_RNvMse_NtCs7uYp9cqXM1e_7Lorenzo7my_vectINtB5_6VectorlE3getB7_
FNDA:2,_RNvMse_NtCs7uYp9cqXM1e_7Lorenzo7my_vectINtB5_6VectorlE6resizeB7_
FNDA:1,_RNvXs0_NtCs7uYp9cqXM1e_7Lorenzo7my_vectINtB5_6VectorINtCsjH9OezVP8vX_11num_complex7ComplexdEEINtNtCs1TsYZUjtjaA_4core7convert4FromINtNtCsfKxrorEVQSK_5alloc3vec3VecBO_EE4fromB7_
FNDA:14,_RNvXs0_NtCs7uYp9cqXM1e_7Lorenzo7my_vectINtB5_6VectorINtCsjH9OezVP8vX_11num_complex7ComplexfEEINtNtCs1TsYZUjtjaA_4core7convert4FromINtNtCsfKxrorEVQSK_5alloc3vec3VecBO_EE4fromB7_
FNDA:77,_RNvXs0_NtCs7uYp9cqXM1e_7Lorenzo7my_vectINtB5_6VectordEINtNtCs1TsYZUjtjaA_4core7convert4FromINtNtCsfKxrorEVQSK_5alloc3vec3VecdEE4fromB7_
FNDA:32,_RNvXs0_NtCs7uYp9cqXM1e_7Lorenzo7my_vectINtB5_6VectorfEINtNtCs1TsYZUjtjaA_4core7convert4FromINtNtCsfKxrorEVQSK_5alloc3vec3VecfEE4fromB7_
FNDA:50,_RNvXs0_NtCs7uYp9cqXM1e_7Lorenzo7my_vectINtB5_6VectorlEINtNtCs1TsYZUjtjaA_4core7convert4FromINtNtCsfKxrorEVQSK_5alloc3vec3VeclEE4fromB7_
FNDA:3,_RNvXs1_NtCs7uYp9cqXM1e_7Lorenzo7my_vectINtB5_6VectordEINtNtCs1TsYZUjtjaA_4core7convert4FromAdj3_E4fromB7_
FNDA:2,_RNvXs1_NtCs7uYp9cqXM1e_7Lorenzo7my_vectINtB5_6VectorfEINtNtCs1TsYZUjtjaA_4core7convert4FromAfj3_E4fromB7_
FNDA:1,_RNvXs1_NtCs7uYp9cqXM1e_7Lorenzo7my_vectINtB5_6VectorlEINtNtCs1TsYZUjtjaA_4core7convert4FromAlj4_E4fromB7_
FNDA:1,_RNvXs2_NtCs7uYp9cqXM1e_7Lorenzo7my_vectINtB5_6VectorlEINtNtCs1TsYZUjtjaA_4core7convert4FromINtNtB7_6my_mat6MatrixlEE4fromB7_
FNDA:1,_RNvXs5_NtCs7uYp9cqXM1e_7Lorenzo7my_vectINtB5_6VectorlENtNtCs1TsYZUjtjaA_4core3fmt7Display3fmtB7_
FNDA:0,_RNvXs6_NtCs7uYp9cqXM1e_7Lorenzo7my_vectINtB5_6VectordENtNtCs1TsYZUjtjaA_4core3fmt5Debug3fmtB7_
FNDA:1,_RNvXs6_NtCs7uYp9cqXM1e_7Lorenzo7my_vectINtB5_6VectorlENtNtCs1TsYZUjtjaA_4core3fmt5Debug3fmtB7_
FNDA:7,_RNvXs7_NtCs7uYp9cqXM1e_7Lorenzo7my_vectINtB5_6VectordENtNtCs1TsYZUjtjaA_4core3cmp9PartialEq2eqB7_
FNDA:4,_RNvXs7_NtCs7uYp9cqXM1e_7Lorenzo7my_vectINtB5_6VectorlENtNtCs1TsYZUjtjaA_4core3cmp9PartialEq2eqB7_
FNDA:42,_RNvXs8_NtCs7uYp9cqXM1e_7Lorenzo7my_vectINtB5_6VectordEINtNtNtCs1TsYZUjtjaA_4core3ops5index8IndexMutjE9index_mutB7_
FNDA:1,_RNvXs8_NtCs7uYp9cqXM1e_7Lorenzo7my_vectINtB5_6VectorlEINtNtNtCs1TsYZUjtjaA_4core3ops5index8IndexMutjE9index_mutB7_
FNDA:1,_RNvXs9_NtCs7uYp9cqXM1e_7Lorenzo7my_vectINtB5_6VectordENtNtNtNtCs1TsYZUjtjaA_4core4iter6traits7collect12IntoIterator9into_iterB7_
FNDA:1,_RNvXs9_NtCs7uYp9cqXM1e_7Lorenzo7my_vectINtB5_6VectorlENtNtNtNtCs1TsYZUjtjaA_4core4iter6traits7collect12IntoIterator9into_iterB7_
FNDA:1,_RNvXs_NtCs7uYp9cqXM1e_7Lorenzo7my_vectINtB4_6VectorlENtNtCs1TsYZUjtjaA_4core7default7Default7defaultB6_
FNDA:1,_RNvXsa_NtCs7uYp9cqXM1e_7Lorenzo7my_vectRINtB5_6VectordENtNtNtNtCs1TsYZUjtjaA_4core4iter6traits7collect12IntoIterator9into_iterB7_
FNDA:1,_RNvXsa_NtCs7uYp9cqXM1e_7Lorenzo7my_vectRINtB5_6VectorlENtNtNtNtCs1TsYZUjtjaA_4core4iter6traits7collect12IntoIterator9into_iterB7_
FNDA:2,_RNvXsb_NtCs7uYp9cqXM1e_7Lorenzo7my_vectQINtB5_6VectordENtNtNtNtCs1TsYZUjtjaA_4core4iter6traits7collect12IntoIterator9into_iterB7_
FNDA:1,_RNvXsb_NtCs7uYp9cqXM1e_7Lorenzo7my_vectQINtB5_6VectorlENtNtNtNtCs1TsYZUjtjaA_4core4iter6traits7collect12IntoIterator9into_iterB7_
FNDA:1,_RNvXsc_NtCs7uYp9cqXM1e_7Lorenzo7my_vectINtB5_6VectorINtCsjH9OezVP8vX_11num_complex7ComplexdEEINtNtNtCs1TsYZUjtjaA_4core3ops5index5IndexjE5indexB7_
FNDA:10,_RNvXsc_NtCs7uYp9cqXM1e_7Lorenzo7my_vectINtB5_6VectorINtCsjH9OezVP8vX_11num_complex7ComplexfEEINtNtNtCs1TsYZUjtjaA_4core3ops5index5IndexjE5indexB7_
FNDA:142,_RNvXsc_NtCs7uYp9cqXM1e_7Lorenzo7my_vectINtB5_6VectordEINtNtNtCs1TsYZUjtjaA_4core3ops5index5IndexjE5indexB7_
FNDA:24,_RNvXsc_NtCs7uYp9cqXM1e_7Lorenzo7my_vectINtB5_6VectorfEINtNtNtCs1TsYZUjtjaA_4core3ops5index5IndexjE5indexB7_
FNDA:72,_RNvXsc_NtCs7uYp9cqXM1e_7Lorenzo7my_vectINtB5_6VectorlEINtNtNtCs1TsYZUjtjaA_4core3ops5index5IndexjE5indexB7_
FNF:40
FNH:40
DA:13,1
DA:14,1
DA:15,1
DA:17,7
DA:18,7
DA:19,7
DA:26,1
DA:27,1
DA:28,1
DA:32,174
DA:33,174
DA:34,174
DA:38,6
DA:39,6
DA:40,6
DA:47,1
DA:48,1
DA:49,3
DA:50,3
DA:51,3
DA:52,1
DA:53,1
DA:57,161
DA:58,161
DA:59,161
DA:62,26
DA:63,26
DA:64,26
DA:71,18
DA:72,18
DA:73,18
DA:81,1
DA:82,1
DA:83,3
DA:84,3
DA:85,2
DA:86,1
DA:87,3
DA:89,1
DA:90,1
DA:97,1
DA:98,1
DA:99,1
DA:107,11
DA:108,11
DA:109,11
DA:113,43
DA:114,43
DA:115,43
DA:126,2
DA:127,2
DA:128,2
DA:138,2
DA:139,2
DA:140,2
DA:150,3
DA:151,3
DA:152,3
DA:158,249
DA:159,249
DA:160,249
DA:164,1
DA:165,1
DA:166,1
DA:167,1
DA:168,1
DA:169,1
DA:173,99
DA:174,99
DA:175,99
DA:176,6
DA:177,6
DA:178,6
DA:180,6
DA:181,6
DA:190,1
DA:191,1
DA:192,1
DA:193,1
DA:194,1
DA:197,1
DA:198,1
DA:199,1
DA:200,1
DA:203,1
DA:204,1
DA:205,1
DA:206,1
DA:207,1
DA:208,1
DA:211,1
DA:212,1
DA:213,1
DA:214,1
DA:215,1
DA:216,1
DA:217,1
DA:220,1
DA:221,1
DA:222,1
DA:223,1
DA:224,1
DA:227,1
DA:228,1
DA:229,1
DA:230,1
DA:231,1
DA:234,1
DA:235,1
DA:236,1
DA:237,1
DA:240,1
DA:241,1
DA:242,1
DA:243,1
DA:244,1
DA:245,1
DA:248,1
DA:249,1
DA:250,1
DA:251,1
DA:252,1
DA:253,1
DA:254,1
DA:257,1
DA:258,1
DA:259,1
DA:260,1
DA:261,1
DA:262,1
DA:265,1
DA:266,1
DA:267,1
DA:268,1
DA:269,1
DA:272,1
DA:273,1
DA:274,1
DA:275,1
DA:276,1
DA:279,1
DA:280,1
DA:281,1
DA:282,1
DA:283,1
DA:286,1
DA:287,1
DA:288,3
DA:289,3
DA:290,3
DA:291,1
DA:292,1
DA:293,1
DA:294,1
DA:297,1
DA:298,1
DA:299,1
DA:300,1
DA:301,1
DA:302,1
DA:303,1
DA:304,1
DA:307,1
DA:308,1
DA:309,1
DA:310,1
DA:311,1
DA:312,1
DA:313,1
DA:314,1
DA:315,1
DA:318,1
DA:319,1
DA:320,1
DA:321,1
DA:322,1
DA:323,1
DA:326,1
DA:327,1
DA:328,1
DA:329,1
DA:330,1
DA:331,1
DA:333,1
DA:334,1
DA:335,1
DA:338,1
DA:339,1
DA:340,1
DA:341,1
DA:342,1
BRDA:84,0,0,2
BRDA:84,0,1,1
BRF:2
BRH:2
LF:191
LH:191
end_of_record
SF:/home/runner/work/matrix/matrix/Lorenzo/src/norm.rs
FN:66,_RNCNvXs_NtCs7uYp9cqXM1e_7Lorenzo4normINtNtB8_7my_vect6VectorINtCsjH9OezVP8vX_11num_complex7ComplexfEENtB6_11VectorNorms6norm_10B8_
FN:69,_RNCNvXs_NtCs7uYp9cqXM1e_7Lorenzo4normINtNtB8_7my_vect6VectorINtCsjH9OezVP8vX_11num_complex7ComplexfEENtB6_11VectorNorms6norm_20B8_
FN:74,_RNCNvXs_NtCs7uYp9cqXM1e_7Lorenzo4normINtNtB8_7my_vect6VectorINtCsjH9OezVP8vX_11num_complex7ComplexfEENtB6_11VectorNorms8norm_inf0B8_
FN:66,_RNCNvXs_NtCs7uYp9cqXM1e_7Lorenzo4normINtNtB8_7my_vect6VectordENtB6_11VectorNorms6norm_10B8_
FN:69,_RNCNvXs_NtCs7uYp9cqXM1e_7Lorenzo4normINtNtB8_7my_vect6VectordENtB6_11VectorNorms6norm_20B8_
FN:74,_RNCNvXs_NtCs7uYp9cqXM1e_7Lorenzo4normINtNtB8_7my_vect6VectordENtB6_11VectorNorms8norm_inf0B8_
FN:66,_RNCNvXs_NtCs7uYp9cqXM1e_7Lorenzo4normINtNtB8_7my_vect6VectorfENtB6_11VectorNorms6norm_10B8_
FN:69,_RNCNvXs_NtCs7uYp9cqXM1e_7Lorenzo4normINtNtB8_7my_vect6VectorlENtB6_11VectorNorms6norm_20B8_
FN:17,_RNvXs0_NtCs7uYp9cqXM1e_7Lorenzo4normfNtB5_9Magnitude3mag
FN:17,_RNvXs1_NtCs7uYp9cqXM1e_7Lorenzo4normdNtB5_9Magnitude3mag
FN:20,_RNvXs1_NtCs7uYp9cqXM1e_7Lorenzo4normdNtB5_9Magnitude6mag_sq
FN:20,_RNvXs2_NtCs7uYp9cqXM1e_7Lorenzo4normlNtB5_9Magnitude6mag_sq
FN:65,_RNvXs_NtCs7uYp9cqXM1e_7Lorenzo4normINtNtB6_7my_vect6VectorINtCsjH9OezVP8vX_11num_complex7ComplexfEENtB4_11VectorNorms6norm_1B6_
FN:68,_RNvXs_NtCs7uYp9cqXM1e_7Lorenzo4normINtNtB6_7my_vect6VectorINtCsjH9OezVP8vX_11num_complex7ComplexfEENtB4_11VectorNorms6norm_2B6_
FN:71,_RNvXs_NtCs7uYp9cqXM1e_7Lorenzo4normINtNtB6_7my_vect6VectorINtCsjH9OezVP8vX_11num_complex7ComplexfEENtB4_11VectorNorms8norm_infB6_
FN:65,_RNvXs_NtCs7uYp9cqXM1e_7Lorenzo4normINtNtB6_7my_vect6VectordENtB4_11VectorNorms6norm_1B6_
FN:68,_RNvXs_NtCs7uYp9cqXM1e_7Lorenzo4normINtNtB6_7my_vect6VectordENtB4_11VectorNorms6norm_2B6_
FN:71,_RNvXs_NtCs7uYp9cqXM1e_7Lorenzo4normINtNtB6_7my_vect6VectordENtB4_11VectorNorms8norm_infB6_
FN:65,_RNvXs_NtCs7uYp9cqXM1e_7Lorenzo4normINtNtB6_7my_vect6VectorfENtB4_11VectorNorms6norm_1B6_
FN:68,_RNvXs_NtCs7uYp9cqXM1e_7Lorenzo4normINtNtB6_7my_vect6VectorlENtB4_11VectorNorms6norm_2B6_
FN:56,_RNvYINtNtCs7uYp9cqXM1e_7Lorenzo7my_vect6VectordENtNtB7_4norm11VectorNorms4normB7_
FN:89,_RNvNtNtCs7uYp9cqXM1e_7Lorenzo4norm5tests9approx_eq
FN:121,_RNvNtNtCs7uYp9cqXM1e_7Lorenzo4norm5testss_15test_norm_1_f32
FN:94,_RNvNtNtCs7uYp9cqXM1e_7Lorenzo4norm5testss_15test_norm_1_f64
FN:101,_RNvNtNtCs7uYp9cqXM1e_7Lorenzo4norm5testss_15test_norm_2_f64
FN:128,_RNvNtNtCs7uYp9cqXM1e_7Lorenzo4norm5testss_15test_norm_2_i32
FN:115,_RNvNtNtCs7uYp9cqXM1e_7Lorenzo4norm5testss_15test_norm_alias
FN:163,_RNvNtNtCs7uYp9cqXM1e_7Lorenzo4norm5testss_16test_zero_vector
FN:135,_RNvNtNtCs7uYp9cqXM1e_7Lorenzo4norm5testss_17test_norm_complex
FN:108,_RNvNtNtCs7uYp9cqXM1e_7Lorenzo4norm5testss_17test_norm_inf_f64
FN:142,_RNvNtNtCs7uYp9cqXM1e_7Lorenzo4norm5testss_19test_norm_1_complex
FN:152,_RNvNtNtCs7uYp9cqXM1e_7Lorenzo4norm5testss_21test_norm_inf_complex
FN:20,_RNvXs0_NtCs7uYp9cqXM1e_7Lorenzo4normfNtB5_9Magnitude6mag_sq
FN:17,_RNvXs2_NtCs7uYp9cqXM1e_7Lorenzo4normlNtB5_9Magnitude3mag
FN:17,_RNvXs3_NtCs7uYp9cqXM1e_7Lorenzo4normxNtB5_9Magnitude3mag
FN:20,_RNvXs3_NtCs7uYp9cqXM1e_7Lorenzo4normxNtB5_9Magnitude6mag_sq
FN:17,_RNvXs4_NtCs7uYp9cqXM1e_7Lorenzo4normiNtB5_9Magnitude3mag
FN:20,_RNvXs4_NtCs7uYp9cqXM1e_7Lorenzo4normiNtB5_9Magnitude6mag_sq
FN:8,_RNvYpNtNtCs7uYp9cqXM1e_7Lorenzo4norm9Magnitude6mag_sqB7_
FN:38,_RNvXNtCs7uYp9cqXM1e_7Lorenzo4normINtCsjH9OezVP8vX_11num_complex7ComplexfENtB2_9Magnitude3magB4_
FN:44,_RNvXNtCs7uYp9cqXM1e_7Lorenzo4normINtCsjH9OezVP8vX_11num_complex7ComplexfENtB2_9Magnitude6mag_sqB4_
FNDA:2,_RNCNvXs_NtCs7uYp9cqXM1e_7Lorenzo4normINtNtB8_7my_vect6VectorINtCsjH9OezVP8vX_11num_complex7ComplexfEENtB6_11VectorNorms6norm_10B8_
FNDA:4,_RNCNvXs_NtCs7uYp9cqXM1e_7Lorenzo4normINtNtB8_7my_vect6VectorINtCsjH9OezVP8vX_11num_complex7ComplexfEENtB6_11VectorNorms6norm_20B8_
FNDA:3,_RNCNvXs_NtCs7uYp9cqXM1e_7Lorenzo4normINtNtB8_7my_vect6VectorINtCsjH9OezVP8vX_11num_complex7ComplexfEENtB6_11VectorNorms8norm_inf0B8_
FNDA:5,_RNCNvXs_NtCs7uYp9cqXM1e_7Lorenzo4normINtNtB8_7my_vect6VectordENtB6_11VectorNorms6norm_10B8_
FNDA:27,_RNCNvXs_NtCs7uYp9cqXM1e_7Lorenzo4normINtNtB8_7my_vect6VectordENtB6_11VectorNorms6norm_20B8_
FNDA:6,_RNCNvXs_NtCs7uYp9cqXM1e_7Lorenzo4normINtNtB8_7my_vect6VectordENtB6_11VectorNorms8norm_inf0B8_
FNDA:3,_RNCNvXs_NtCs7uYp9cqXM1e_7Lorenzo4normINtNtB8_7my_vect6VectorfENtB6_11VectorNorms6norm_10B8_
FNDA:2,_RNCNvXs_NtCs7uYp9cqXM1e_7Lorenzo4normINtNtB8_7my_vect6VectorlENtB6_11VectorNorms6norm_20B8_
FNDA:3,_RNvXs0_NtCs7uYp9cqXM1e_7Lorenzo4normfNtB5_9Magnitude3mag
FNDA:11,_RNvXs1_NtCs7uYp9cqXM1e_7Lorenzo4normdNtB5_9Magnitude3mag
FNDA:27,_RNvXs1_NtCs7uYp9cqXM1e_7Lorenzo4normdNtB5_9Magnitude6mag_sq
FNDA:2,_RNvXs2_NtCs7uYp9cqXM1e_7Lorenzo4normlNtB5_9Magnitude6mag_sq
FNDA:1,_RNvXs_NtCs7uYp9cqXM1e_7Lorenzo4normINtNtB6_7my_vect6VectorINtCsjH9OezVP8vX_11num_complex7ComplexfEENtB4_11VectorNorms6norm_1B6_
FNDA:4,_RNvXs_NtCs7uYp9cqXM1e_7Lorenzo4normINtNtB6_7my_vect6VectorINtCsjH9OezVP8vX_11num_complex7ComplexfEENtB4_11VectorNorms6norm_2B6_
FNDA:1,_RNvXs_NtCs7uYp9cqXM1e_7Lorenzo4normINtNtB6_7my_vect6VectorINtCsjH9OezVP8vX_11num_complex7ComplexfEENtB4_11VectorNorms8norm_infB6_
FNDA:2,_RNvXs_NtCs7uYp9cqXM1e_7Lorenzo4normINtNtB6_7my_vect6VectordENtB4_11VectorNorms6norm_1B6_
FNDA:13,_RNvXs_NtCs7uYp9cqXM1e_7Lorenzo4normINtNtB6_7my_vect6VectordENtB4_11VectorNorms6norm_2B6_
FNDA:2,_RNvXs_NtCs7uYp9cqXM1e_7Lorenzo4normINtNtB6_7my_vect6VectordENtB4_11VectorNorms8norm_infB6_
FNDA:1,_RNvXs_NtCs7uYp9cqXM1e_7Lorenzo4normINtNtB6_7my_vect6VectorfENtB4_11VectorNorms6norm_1B6_
FNDA:1,_RNvXs_NtCs7uYp9cqXM1e_7Lorenzo4normINtNtB6_7my_vect6VectorlENtB4_11VectorNorms6norm_2B6_
FNDA:1,_RNvYINtNtCs7uYp9cqXM1e_7Lorenzo7my_vect6VectordENtNtB7_4norm11VectorNorms4normB7_
FNDA:12,_RNvNtNtCs7uYp9cqXM1e_7Lorenzo4norm5tests9approx_eq
FNDA:1,_RNvNtNtCs7uYp9cqXM1e_7Lorenzo4norm5testss_15test_norm_1_f32
FNDA:1,_RNvNtNtCs7uYp9cqXM1e_7Lorenzo4norm5testss_15test_norm_1_f64
FNDA:1,_RNvNtNtCs7uYp9cqXM1e_7Lorenzo4norm5testss_15test_norm_2_f64
FNDA:1,_RNvNtNtCs7uYp9cqXM1e_7Lorenzo4norm5testss_15test_norm_2_i32
FNDA:1,_RNvNtNtCs7uYp9cqXM1e_7Lorenzo4norm5testss_15test_norm_alias
FNDA:1,_RNvNtNtCs7uYp9cqXM1e_7Lorenzo4norm5testss_16test_zero_vector
FNDA:1,_RNvNtNtCs7uYp9cqXM1e_7Lorenzo4norm5testss_17test_norm_complex
FNDA:1,_RNvNtNtCs7uYp9cqXM1e_7Lorenzo4norm5testss_17test_norm_inf_f64
FNDA:1,_RNvNtNtCs7uYp9cqXM1e_7Lorenzo4norm5testss_19test_norm_1_complex
FNDA:1,_RNvNtNtCs7uYp9cqXM1e_7Lorenzo4norm5testss_21test_norm_inf_complex
FNDA:0,_RNvXs0_NtCs7uYp9cqXM1e_7Lorenzo4normfNtB5_9Magnitude6mag_sq
FNDA:0,_RNvXs2_NtCs7uYp9cqXM1e_7Lorenzo4normlNtB5_9Magnitude3mag
FNDA:0,_RNvXs3_NtCs7uYp9cqXM1e_7Lorenzo4normxNtB5_9Magnitude3mag
FNDA:0,_RNvXs3_NtCs7uYp9cqXM1e_7Lorenzo4normxNtB5_9Magnitude6mag_sq
FNDA:0,_RNvXs4_NtCs7uYp9cqXM1e_7Lorenzo4normiNtB5_9Magnitude3mag
FNDA:0,_RNvXs4_NtCs7uYp9cqXM1e_7Lorenzo4normiNtB5_9Magnitude6mag_sq
FNDA:0,_RNvYpNtNtCs7uYp9cqXM1e_7Lorenzo4norm9Magnitude6mag_sqB7_
FNDA:5,_RNvXNtCs7uYp9cqXM1e_7Lorenzo4normINtCsjH9OezVP8vX_11num_complex7ComplexfENtB2_9Magnitude3magB4_
FNDA:4,_RNvXNtCs7uYp9cqXM1e_7Lorenzo4normINtCsjH9OezVP8vX_11num_complex7ComplexfENtB2_9Magnitude6mag_sqB4_
FNF:23
FNH:22
DA:8,0
DA:9,0
DA:10,0
DA:11,0
DA:17,14
DA:18,14
DA:19,14
DA:20,29
DA:21,29
DA:22,29
DA:23,29
DA:38,5
DA:39,5
DA:40,5
DA:41,5
DA:42,5
DA:43,5
DA:44,4
DA:45,4
DA:46,4
DA:47,4
DA:48,4
DA:56,1
DA:57,1
DA:58,1
DA:65,4
DA:66,10
DA:67,4
DA:68,18
DA:69,33
DA:70,18
DA:71,3
DA:72,3
DA:73,3
DA:74,9
DA:75,3
DA:76,3
DA:89,12
DA:90,12
DA:91,12
DA:94,1
DA:95,1
DA:96,1
DA:97,1
DA:98,1
DA:101,1
DA:102,1
DA:103,1
DA:104,1
DA:105,1
DA:108,1
DA:109,1
DA:110,1
DA:111,1
DA:112,1
DA:115,1
DA:116,1
DA:117,1
DA:118,1
DA:121,1
DA:122,1
DA:123,1
DA:124,1
DA:125,1
DA:128,1
DA:129,1
DA:130,1
DA:131,1
DA:132,1
DA:135,1
DA:136,1
DA:137,1
DA:138,1
DA:139,1
DA:142,1
DA:143,1
DA:144,1
DA:145,1
DA:147,1
DA:148,1
DA:149,1
DA:152,1
DA:153,1
DA:154,1
DA:155,1
DA:156,1
DA:158,1
DA:159,1
DA:160,1
DA:163,1
DA:164,1
DA:165,1
DA:166,1
DA:167,1
DA:168,1
BRF:0
BRH:0
LF:98
LH:94
end_of_record
SF:/home/runner/work/matrix/matrix/Lorenzo/src/projection.rs
FN:45,_RINvNtCs7uYp9cqXM1e_7Lorenzo10projection10projectionINtCsjH9OezVP8vX_11num_complex7ComplexdEEB4_
FN:45,_RINvNtCs7uYp9cqXM1e_7Lorenzo10projection10projectionINtCsjH9OezVP8vX_11num_complex7ComplexfEEB4_
FN:45,_RINvNtCs7uYp9cqXM1e_7Lorenzo10projection10projectiondEB4_
FN:45,_RINvNtCs7uYp9cqXM1e_7Lorenzo10projection10projectionfEB4_
FN:13,_RNvXNtCs7uYp9cqXM1e_7Lorenzo10projectionfNtB2_8TrigLike3tanB4_
FN:20,_RNvXs_NtCs7uYp9cqXM1e_7Lorenzo10projectiondNtB4_8TrigLike3tanB6_
FN:97,_RNvNtNtCs7uYp9cqXM1e_7Lorenzo10projection5testss_14projection_f64
FN:139,_RNvNtNtCs7uYp9cqXM1e_7Lorenzo10projection5testss_16triglike_f32_tan
FN:146,_RNvNtNtCs7uYp9cqXM1e_7Lorenzo10projection5testss_16triglike_f64_tan
FN:80,_RNvNtNtCs7uYp9cqXM1e_7Lorenzo10projection5testss_20projection_f32_basic
FN:112,_RNvNtNtCs7uYp9cqXM1e_7Lorenzo10projection5testss_22projection_complex_f32
FN:153,_RNvNtNtCs7uYp9cqXM1e_7Lorenzo10projection5testss_24triglike_complex_f32_tan
FN:162,_RNvNtNtCs7uYp9cqXM1e_7Lorenzo10projection5testss_24triglike_complex_f64_tan
FN:125,_RNvNtNtCs7uYp9cqXM1e_7Lorenzo10projection5testss_35projection_complex_from_real_inputs
FN:27,_RNvXs0_NtCs7uYp9cqXM1e_7Lorenzo10projectionINtCsjH9OezVP8vX_11num_complex7ComplexfENtB5_8TrigLike3tanB7_
FN:34,_RNvXs1_NtCs7uYp9cqXM1e_7Lorenzo10projectionINtCsjH9OezVP8vX_11num_complex7ComplexdENtB5_8TrigLike3tanB7_
FNDA:1,_RINvNtCs7uYp9cqXM1e_7Lorenzo10projection10projectionINtCsjH9OezVP8vX_11num_complex7ComplexdEEB4_
FNDA:1,_RINvNtCs7uYp9cqXM1e_7Lorenzo10projection10projectionINtCsjH9OezVP8vX_11num_complex7ComplexfEEB4_
FNDA:1,_RINvNtCs7uYp9cqXM1e_7Lorenzo10projection10projectiondEB4_
FNDA:1,_RINvNtCs7uYp9cqXM1e_7Lorenzo10projection10projectionfEB4_
FNDA:2,_RNvXNtCs7uYp9cqXM1e_7Lorenzo10projectionfNtB2_8TrigLike3tanB4_
FNDA:2,_RNvXs_NtCs7uYp9cqXM1e_7Lorenzo10projectiondNtB4_8TrigLike3tanB6_
FNDA:1,_RNvNtNtCs7uYp9cqXM1e_7Lorenzo10projection5testss_14projection_f64
FNDA:1,_RNvNtNtCs7uYp9cqXM1e_7Lorenzo10projection5testss_16triglike_f32_tan
FNDA:1,_RNvNtNtCs7uYp9cqXM1e_7Lorenzo10projection5testss_16triglike_f64_tan
FNDA:1,_RNvNtNtCs7uYp9cqXM1e_7Lorenzo10projection5testss_20projection_f32_basic
FNDA:1,_RNvNtNtCs7uYp9cqXM1e_7Lorenzo10projection5testss_22projection_complex_f32
FNDA:1,_RNvNtNtCs7uYp9cqXM1e_7Lorenzo10projection5testss_24triglike_complex_f32_tan
FNDA:1,_RNvNtNtCs7uYp9cqXM1e_7Lorenzo10projection5testss_24triglike_complex_f64_tan
FNDA:1,_RNvNtNtCs7uYp9cqXM1e_7Lorenzo10projection5testss_35projection_complex_from_real_inputs
FNDA:2,_RNvXs0_NtCs7uYp9cqXM1e_7Lorenzo10projectionINtCsjH9OezVP8vX_11num_complex7ComplexfENtB5_8TrigLike3tanB7_
FNDA:2,_RNvXs1_NtCs7uYp9cqXM1e_7Lorenzo10projectionINtCsjH9OezVP8vX_11num_complex7ComplexdENtB5_8TrigLike3tanB7_
FNF:13
FNH:13
DA:13,2
DA:14,2
DA:15,2
DA:20,2
DA:21,2
DA:22,2
DA:27,2
DA:28,2
DA:29,2
DA:34,2
DA:35,2
DA:36,2
DA:45,4
DA:46,4
DA:47,4
DA:48,4
DA:49,4
DA:50,4
DA:51,4
DA:52,4
DA:53,4
DA:54,4
DA:55,4
DA:56,4
DA:58,4
DA:59,4
DA:61,4
DA:62,4
DA:63,4
DA:64,4
DA:65,4
DA:66,4
DA:68,4
DA:69,4
DA:72,4
DA:73,4
DA:80,1
DA:81,1
DA:82,1
DA:83,1
DA:84,1
DA:85,1
DA:86,1
DA:88,1
DA:89,1
DA:90,1
DA:92,1
DA:93,1
DA:94,1
DA:97,1
DA:98,1
DA:99,1
DA:100,1
DA:101,1
DA:102,1
DA:103,1
DA:104,1
DA:105,1
DA:106,1
DA:107,1
DA:108,1
DA:109,1
DA:112,1
DA:113,1
DA:114,1
DA:115,1
DA:116,1
DA:117,1
DA:118,1
DA:119,1
DA:120,1
DA:121,1
DA:122,1
DA:125,1
DA:127,1
DA:128,1
DA:129,1
DA:130,1
DA:131,1
DA:132,1
DA:134,1
DA:135,1
DA:136,1
DA:139,1
DA:140,1
DA:141,1
DA:142,1
DA:143,1
DA:146,1
DA:147,1
DA:148,1
DA:149,1
DA:150,1
DA:153,1
DA:154,1
DA:155,1
DA:157,1
DA:158,1
DA:159,1
DA:162,1
DA:163,1
DA:164,1
DA:166,1
DA:167,1
DA:168,1
BRDA:90,0,0,1
BRDA:90,0,1,0
BRDA:90,1,2,1
BRDA:90,1,3,0
BRDA:106,0,0,1
BRDA:106,0,1,0
BRDA:106,1,2,1
BRDA:106,1,3,0
BRF:8
BRH:4
LF:105
LH:105
end_of_record
SF:/home/runner/work/matrix/matrix/Lorenzo/src/rank.rs
FN:14,_RNvMNtCs7uYp9cqXM1e_7Lorenzo4rankINtNtB4_6my_mat6MatrixdE4rankB4_
FN:14,_RNvMNtCs7uYp9cqXM1e_7Lorenzo4rankINtNtB4_6my_mat6MatrixlE4rankB4_
FN:102,_RNvNtNtCs7uYp9cqXM1e_7Lorenzo4rank5testss_15rank_2x2_rank_1
FN:84,_RNvNtNtCs7uYp9cqXM1e_7Lorenzo4rank5testss_16rank_zero_matrix
FN:122,_RNvNtNtCs7uYp9cqXM1e_7Lorenzo4rank5testss_17rank_panics_on_1d
FN:96,_RNvNtNtCs7uYp9cqXM1e_7Lorenzo4rank5testss_18rank_2x2_full_rank
FN:135,_RNvNtNtCs7uYp9cqXM1e_7Lorenzo4rank5testss_18rank_with_integers
FN:109,_RNvNtNtCs7uYp9cqXM1e_7Lorenzo4rank5testss_19rank_single_element
FN:48,_RNvNtNtCs7uYp9cqXM1e_7Lorenzo4rank5testss_20rank_identity_matrix
FN:72,_RNvNtNtCs7uYp9cqXM1e_7Lorenzo4rank5testss_20rank_singular_matrix
FN:60,_RNvNtNtCs7uYp9cqXM1e_7Lorenzo4rank5testss_21rank_full_rank_matrix
FN:115,_RNvNtNtCs7uYp9cqXM1e_7Lorenzo4rank5testss_24rank_single_element_zero
FN:129,_RNvNtNtCs7uYp9cqXM1e_7Lorenzo4rank5testss_25rank_panics_on_non_square
FNDA:10,_RNvMNtCs7uYp9cqXM1e_7Lorenzo4rankINtNtB4_6my_mat6MatrixdE4rankB4_
FNDA:1,_RNvMNtCs7uYp9cqXM1e_7Lorenzo4rankINtNtB4_6my_mat6MatrixlE4rankB4_
FNDA:1,_RNvNtNtCs7uYp9cqXM1e_7Lorenzo4rank5testss_15rank_2x2_rank_1
FNDA:1,_RNvNtNtCs7uYp9cqXM1e_7Lorenzo4rank5testss_16rank_zero_matrix
FNDA:1,_RNvNtNtCs7uYp9cqXM1e_7Lorenzo4rank5testss_17rank_panics_on_1d
FNDA:1,_RNvNtNtCs7uYp9cqXM1e_7Lorenzo4rank5testss_18rank_2x2_full_rank
FNDA:1,_RNvNtNtCs7uYp9cqXM1e_7Lorenzo4rank5testss_18rank_with_integers
FNDA:1,_RNvNtNtCs7uYp9cqXM1e_7Lorenzo4rank5testss_19rank_single_element
FNDA:1,_RNvNtNtCs7uYp9cqXM1e_7Lorenzo4rank5testss_20rank_identity_matrix
FNDA:1,_RNvNtNtCs7uYp9cqXM1e_7Lorenzo4rank5testss_20rank_singular_matrix
FNDA:1,_RNvNtNtCs7uYp9cqXM1e_7Lorenzo4rank5testss_21rank_full_rank_matrix
FNDA:1,_RNvNtNtCs7uYp9cqXM1e_7Lorenzo4rank5testss_24rank_single_element_zero
FNDA:1,_RNvNtNtCs7uYp9cqXM1e_7Lorenzo4rank5testss_25rank_panics_on_non_square
FNF:12
FNH:12
DA:14,11
DA:15,11
DA:16,1
DA:17,10
DA:18,10
DA:19,1
DA:20,9
DA:21,9
DA:22,9
DA:23,9
DA:24,9
DA:26,20
DA:27,20
DA:28,38
DA:29,38
DA:30,38
DA:31,14
DA:32,14
DA:33,24
DA:35,20
DA:36,14
DA:37,14
DA:39,9
DA:40,9
DA:48,1
DA:50,1
DA:51,1
DA:52,1
DA:53,1
DA:55,1
DA:56,1
DA:57,1
DA:60,1
DA:62,1
DA:63,1
DA:64,1
DA:65,1
DA:67,1
DA:68,1
DA:69,1
DA:72,1
DA:74,1
DA:75,1
DA:76,1
DA:77,1
DA:79,1
DA:80,1
DA:81,1
DA:84,1
DA:86,1
DA:87,1
DA:88,1
DA:89,1
DA:91,1
DA:92,1
DA:93,1
DA:96,1
DA:97,1
DA:98,1
DA:99,1
DA:102,1
DA:104,1
DA:105,1
DA:106,1
DA:109,1
DA:110,1
DA:111,1
DA:112,1
DA:115,1
DA:116,1
DA:117,1
DA:118,1
DA:122,1
DA:123,1
DA:124,1
DA:125,1
DA:129,1
DA:130,1
DA:131,1
DA:132,1
DA:135,1
DA:136,1
DA:137,1
DA:138,1
BRDA:15,0,0,1
BRDA:15,0,1,10
BRDA:18,0,0,1
BRDA:18,0,1,9
BRDA:30,0,0,14
BRDA:30,0,1,24
BRDA:35,0,0,14
BRDA:35,0,1,6
BRF:8
BRH:8
LF:84
LH:84
end_of_record
SF:/home/runner/work/matrix/matrix/Lorenzo/src/row_echelon.rs
FN:52,_RNvMNtCs7uYp9cqXM1e_7Lorenzo11row_echelonINtNtB4_6my_mat6MatrixdE11row_echelonB4_
FN:38,_RNvMNtCs7uYp9cqXM1e_7Lorenzo11row_echelonINtNtB4_6my_mat6MatrixdE8add_rowsB4_
FN:12,_RNvMNtCs7uYp9cqXM1e_7Lorenzo11row_echelonINtNtB4_6my_mat6MatrixdE9swap_rowsB4_
FN:52,_RNvMNtCs7uYp9cqXM1e_7Lorenzo11row_echelonINtNtB4_6my_mat6MatrixlE11row_echelonB4_
FN:38,_RNvMNtCs7uYp9cqXM1e_7Lorenzo11row_echelonINtNtB4_6my_mat6MatrixlE8add_rowsB4_
FN:12,_RNvMNtCs7uYp9cqXM1e_7Lorenzo11row_echelonINtNtB4_6my_mat6MatrixlE9swap_rowsB4_
FN:135,_RNvNtNtCs7uYp9cqXM1e_7Lorenzo11row_echelon5testss_15row_echelon_2x2
FN:184,_RNvNtNtCs7uYp9cqXM1e_7Lorenzo11row_echelon5testss_20row_echelon_integers
FN:115,_RNvNtNtCs7uYp9cqXM1e_7Lorenzo11row_echelon5testss_22row_echelon_simple_3x3
FN:178,_RNvNtNtCs7uYp9cqXM1e_7Lorenzo11row_echelon5testss_24row_echelon_panics_on_1d
FN:99,_RNvNtNtCs7uYp9cqXM1e_7Lorenzo11row_echelon5testss_27row_echelon_identity_matrix
FN:160,_RNvNtNtCs7uYp9cqXM1e_7Lorenzo11row_echelon5testss_27row_echelon_rectangular_3x4
FN:146,_RNvNtNtCs7uYp9cqXM1e_7Lorenzo11row_echelon5testss_27row_echelon_with_zero_pivot
FNDA:17,_RNvMNtCs7uYp9cqXM1e_7Lorenzo11row_echelonINtNtB4_6my_mat6MatrixdE11row_echelonB4_
FNDA:30,_RNvMNtCs7uYp9cqXM1e_7Lorenzo11row_echelonINtNtB4_6my_mat6MatrixdE8add_rowsB4_
FNDA:2,_RNvMNtCs7uYp9cqXM1e_7Lorenzo11row_echelonINtNtB4_6my_mat6MatrixdE9swap_rowsB4_
FNDA:2,_RNvMNtCs7uYp9cqXM1e_7Lorenzo11row_echelonINtNtB4_6my_mat6MatrixlE11row_echelonB4_
FNDA:4,_RNvMNtCs7uYp9cqXM1e_7Lorenzo11row_echelonINtNtB4_6my_mat6MatrixlE8add_rowsB4_
FNDA:1,_RNvMNtCs7uYp9cqXM1e_7Lorenzo11row_echelonINtNtB4_6my_mat6MatrixlE9swap_rowsB4_
FNDA:1,_RNvNtNtCs7uYp9cqXM1e_7Lorenzo11row_echelon5testss_15row_echelon_2x2
FNDA:1,_RNvNtNtCs7uYp9cqXM1e_7Lorenzo11row_echelon5testss_20row_echelon_integers
FNDA:1,_RNvNtNtCs7uYp9cqXM1e_7Lorenzo11row_echelon5testss_22row_echelon_simple_3x3
FNDA:1,_RNvNtNtCs7uYp9cqXM1e_7Lorenzo11row_echelon5testss_24row_echelon_panics_on_1d
FNDA:1,_RNvNtNtCs7uYp9cqXM1e_7Lorenzo11row_echelon5testss_27row_echelon_identity_matrix
FNDA:1,_RNvNtNtCs7uYp9cqXM1e_7Lorenzo11row_echelon5testss_27row_echelon_rectangular_3x4
FNDA:1,_RNvNtNtCs7uYp9cqXM1e_7Lorenzo11row_echelon5testss_27row_echelon_with_zero_pivot
FNF:10
FNH:10
DA:12,3
DA:13,3
DA:14,0
DA:15,3
DA:16,3
DA:17,9
DA:18,9
DA:19,9
DA:20,9
DA:21,9
DA:22,9
DA:23,9
DA:24,3
DA:38,34
DA:39,34
DA:40,0
DA:41,34
DA:42,34
DA:43,99
DA:44,99
DA:45,99
DA:46,99
DA:47,99
DA:48,99
DA:49,99
DA:50,34
DA:52,19
DA:53,19
DA:54,19
DA:56,19
DA:57,19
DA:58,1
DA:59,18
DA:60,18
DA:61,18
DA:62,45
DA:63,45
DA:64,45
DA:66,45
DA:67,10
DA:68,7
DA:69,7
DA:70,3
DA:71,3
DA:72,3
DA:73,4
DA:75,35
DA:77,45
DA:78,45
DA:79,7
DA:80,38
DA:82,38
DA:83,38
DA:84,34
DA:85,34
DA:86,34
DA:87,34
DA:90,18
DA:91,18
DA:99,1
DA:100,1
DA:101,1
DA:102,1
DA:103,1
DA:105,1
DA:106,1
DA:109,1
DA:110,1
DA:111,1
DA:112,1
DA:115,1
DA:116,1
DA:117,1
DA:118,1
DA:119,1
DA:121,1
DA:122,1
DA:125,1
DA:128,1
DA:129,1
DA:130,1
DA:131,1
DA:132,1
DA:135,1
DA:136,1
DA:137,1
DA:140,1
DA:141,1
DA:142,1
DA:143,1
DA:146,1
DA:147,1
DA:148,1
DA:149,1
DA:150,1
DA:152,1
DA:153,1
DA:156,1
DA:157,1
DA:160,1
DA:161,1
DA:162,1
DA:163,1
DA:164,1
DA:166,1
DA:167,1
DA:170,1
DA:173,1
DA:174,1
DA:178,1
DA:179,1
DA:180,1
DA:181,1
DA:184,1
DA:185,1
DA:186,1
DA:187,1
DA:190,1
DA:191,1
BRDA:13,0,0,0
BRDA:13,0,1,3
BRDA:39,0,0,0
BRDA:39,0,1,34
BRDA:57,0,0,1
BRDA:57,0,1,18
BRDA:66,0,0,10
BRDA:66,0,1,35
BRDA:69,0,0,3
BRDA:69,0,1,4
BRDA:78,0,0,7
BRDA:78,0,1,38
BRF:12
BRH:10
LF:119
LH:117
end_of_record
SF:/home/runner/work/matrix/matrix/Lorenzo/src/trace.rs
FN:4,_RNvMNtCs7uYp9cqXM1e_7Lorenzo5traceINtNtB4_6my_mat6MatrixINtCsjH9OezVP8vX_11num_complex7ComplexdEE5traceB4_
FN:4,_RNvMNtCs7uYp9cqXM1e_7Lorenzo5traceINtNtB4_6my_mat6MatrixlE5traceB4_
FN:52,_RNvNtNtCs7uYp9cqXM1e_7Lorenzo5trace5testss_24trace_of_3d_cubic_matrix
FN:69,_RNvNtNtCs7uYp9cqXM1e_7Lorenzo5trace5testss_28trace_of_4d_hypercube_matrix
FN:87,_RNvNtNtCs7uYp9cqXM1e_7Lorenzo5trace5testss_30trace_of_complex_square_matrix
FN:44,_RNvNtNtCs7uYp9cqXM1e_7Lorenzo5trace5testss_31trace_of_one_dimensional_matrix
FN:37,_RNvNtNtCs7uYp9cqXM1e_7Lorenzo5trace5testss_33trace_panics_for_rectangle_matrix
FN:28,_RNvNtNtCs7uYp9cqXM1e_7Lorenzo5trace5testss_36trace_of_square_matrix_sums_diagonal
FN:79,_RNvNtNtCs7uYp9cqXM1e_7Lorenzo5trace5testss_37trace_panics_for_non_square_3d_matrix
FN:10,_RNCNvMNtCs7uYp9cqXM1e_7Lorenzo5traceINtNtB6_6my_mat6MatrixINtCsjH9OezVP8vX_11num_complex7ComplexdEE5trace0B6_
FN:10,_RNCNvMNtCs7uYp9cqXM1e_7Lorenzo5traceINtNtB6_6my_mat6MatrixlE5trace0B6_
FNDA:2,_RNvMNtCs7uYp9cqXM1e_7Lorenzo5traceINtNtB4_6my_mat6MatrixINtCsjH9OezVP8vX_11num_complex7ComplexdEE5traceB4_
FNDA:10,_RNvMNtCs7uYp9cqXM1e_7Lorenzo5traceINtNtB4_6my_mat6MatrixlE5traceB4_
FNDA:1,_RNvNtNtCs7uYp9cqXM1e_7Lorenzo5trace5testss_24trace_of_3d_cubic_matrix
FNDA:1,_RNvNtNtCs7uYp9cqXM1e_7Lorenzo5trace5testss_28trace_of_4d_hypercube_matrix
FNDA:1,_RNvNtNtCs7uYp9cqXM1e_7Lorenzo5trace5testss_30trace_of_complex_square_matrix
FNDA:1,_RNvNtNtCs7uYp9cqXM1e_7Lorenzo5trace5testss_31trace_of_one_dimensional_matrix
FNDA:1,_RNvNtNtCs7uYp9cqXM1e_7Lorenzo5trace5testss_33trace_panics_for_rectangle_matrix
FNDA:1,_RNvNtNtCs7uYp9cqXM1e_7Lorenzo5trace5testss_36trace_of_square_matrix_sums_diagonal
FNDA:1,_RNvNtNtCs7uYp9cqXM1e_7Lorenzo5trace5testss_37trace_panics_for_non_square_3d_matrix
FNDA:4,_RNCNvMNtCs7uYp9cqXM1e_7Lorenzo5traceINtNtB6_6my_mat6MatrixINtCsjH9OezVP8vX_11num_complex7ComplexdEE5trace0B6_
FNDA:26,_RNCNvMNtCs7uYp9cqXM1e_7Lorenzo5traceINtNtB6_6my_mat6MatrixlE5trace0B6_
FNF:9
FNH:9
DA:4,12
DA:5,12
DA:6,12
DA:8,12
DA:10,30
DA:11,2
DA:12,10
DA:14,10
DA:15,23
DA:16,23
DA:17,23
DA:18,23
DA:19,10
DA:20,10
DA:28,1
DA:29,1
DA:30,1
DA:32,1
DA:33,1
DA:37,1
DA:38,1
DA:40,1
DA:41,1
DA:44,1
DA:47,1
DA:48,1
DA:49,1
DA:52,1
DA:54,1
DA:55,1
DA:61,1
DA:65,1
DA:66,1
DA:69,1
DA:71,1
DA:74,1
DA:75,1
DA:79,1
DA:81,1
DA:83,1
DA:84,1
DA:87,1
DA:90,1
DA:91,1
DA:92,1
DA:94,1
DA:96,1
DA:97,1
BRDA:10,0,0,2
BRDA:10,0,1,10
BRF:2
BRH:2
LF:49
LH:49
end_of_record
SF:/home/runner/work/matrix/matrix/Lorenzo/src/transpose.rs
FN:9,_RNvMNtCs7uYp9cqXM1e_7Lorenzo9transposeINtNtB4_6my_mat6MatrixINtCsjH9OezVP8vX_11num_complex7ComplexdEE9transposeB4_
FN:9,_RNvMNtCs7uYp9cqXM1e_7Lorenzo9transposeINtNtB4_6my_mat6MatrixlE9transposeB4_
FN:77,_RNvNtNtCs7uYp9cqXM1e_7Lorenzo9transpose5testss_19transpose_1d_vector
FN:87,_RNvNtNtCs7uYp9cqXM1e_7Lorenzo9transpose5testss_19transpose_3d_matrix
FN:38,_RNvNtNtCs7uYp9cqXM1e_7Lorenzo9transpose5testss_20transpose_2x3_matrix
FN:59,_RNvNtNtCs7uYp9cqXM1e_7Lorenzo9transpose5testss_23transpose_square_matrix
FN:106,_RNvNtNtCs7uYp9cqXM1e_7Lorenzo9transpose5testss_24transpose_complex_matrix
FN:122,_RNvNtNtCs7uYp9cqXM1e_7Lorenzo9transpose5testss_33transpose_twice_is_original_shape
FNDA:1,_RNvMNtCs7uYp9cqXM1e_7Lorenzo9transposeINtNtB4_6my_mat6MatrixINtCsjH9OezVP8vX_11num_complex7ComplexdEE9transposeB4_
FNDA:6,_RNvMNtCs7uYp9cqXM1e_7Lorenzo9transposeINtNtB4_6my_mat6MatrixlE9transposeB4_
FNDA:1,_RNvNtNtCs7uYp9cqXM1e_7Lorenzo9transpose5testss_19transpose_1d_vector
FNDA:1,_RNvNtNtCs7uYp9cqXM1e_7Lorenzo9transpose5testss_19transpose_3d_matrix
FNDA:1,_RNvNtNtCs7uYp9cqXM1e_7Lorenzo9transpose5testss_20transpose_2x3_matrix
FNDA:1,_RNvNtNtCs7uYp9cqXM1e_7Lorenzo9transpose5testss_23transpose_square_matrix
FNDA:1,_RNvNtNtCs7uYp9cqXM1e_7Lorenzo9transpose5testss_24transpose_complex_matrix
FNDA:1,_RNvNtNtCs7uYp9cqXM1e_7Lorenzo9transpose5testss_33transpose_twice_is_original_shape
FNF:7
FNH:7
DA:9,7
DA:11,7
DA:12,5
DA:13,5
DA:14,5
DA:17,13
DA:18,31
DA:19,31
DA:20,31
DA:23,5
DA:26,2
DA:27,2
DA:29,7
DA:38,1
DA:42,1
DA:43,1
DA:49,1
DA:50,1
DA:51,1
DA:52,1
DA:53,1
DA:54,1
DA:55,1
DA:56,1
DA:59,1
DA:61,1
DA:62,1
DA:64,1
DA:65,1
DA:66,1
DA:67,1
DA:68,1
DA:69,1
DA:70,1
DA:71,1
DA:72,1
DA:73,1
DA:74,1
DA:77,1
DA:79,1
DA:80,1
DA:81,1
DA:82,1
DA:83,1
DA:84,1
DA:87,1
DA:89,1
DA:90,1
DA:93,1
DA:97,1
DA:102,1
DA:103,1
DA:106,1
DA:107,1
DA:108,1
DA:109,1
DA:111,1
DA:112,1
DA:114,1
DA:115,1
DA:116,1
DA:117,1
DA:118,1
DA:119,1
DA:122,1
DA:123,1
DA:124,1
DA:125,1
DA:128,1
DA:129,1
DA:130,1
BRDA:11,0,0,5
BRDA:11,0,1,2
BRF:2
BRH:2
LF:71
LH:71
end_of_record
SF:/home/runner/work/matrix/matrix/Samuele/src/main.rs
FN:4,_RNvCsegUw7dZuH12_7Samuele4main
FNDA:0,_RNvCsegUw7dZuH12_7Samuele4main
FNF:1
FNH:0
DA:4,0
DA:5,0
DA:6,0
BRF:0
BRH:0
LF:3
LH:0
end_of_record
SF:/home/runner/work/matrix/matrix/Samuele/src/matrix.rs
FN:33,_RNCNvMNtCsegUw7dZuH12_7Samuele6matrixINtB4_6MatrixpE9is_square0B6_
FN:24,_RNvMNtCsegUw7dZuH12_7Samuele6matrixINtB2_6MatrixpE3lenB4_
FN:36,_RNvMNtCsegUw7dZuH12_7Samuele6matrixINtB2_6MatrixpE4dataB4_
FN:28,_RNvMNtCsegUw7dZuH12_7Samuele6matrixINtB2_6MatrixpE5shapeB4_
FN:32,_RNvMNtCsegUw7dZuH12_7Samuele6matrixINtB2_6MatrixpE9is_squareB4_
FNDA:0,_RNCNvMNtCsegUw7dZuH12_7Samuele6matrixINtB4_6MatrixpE9is_square0B6_
FNDA:0,_RNvMNtCsegUw7dZuH12_7Samuele6matrixINtB2_6MatrixpE3lenB4_
FNDA:0,_RNvMNtCsegUw7dZuH12_7Samuele6matrixINtB2_6MatrixpE4dataB4_
FNDA:0,_RNvMNtCsegUw7dZuH12_7Samuele6matrixINtB2_6MatrixpE5shapeB4_
FNDA:0,_RNvMNtCsegUw7dZuH12_7Samuele6matrixINtB2_6MatrixpE9is_squareB4_
FNF:5
FNH:0
DA:24,0
DA:25,0
DA:26,0
DA:28,0
DA:29,0
DA:30,0
DA:32,0
DA:33,0
DA:34,0
DA:36,0
DA:37,0
DA:38,0
BRF:0
BRH:0
LF:13
LH:0
end_of_record
SF:/home/runner/work/matrix/matrix/Samuele/src/vector.rs
FN:13,_RNvMNtCsegUw7dZuH12_7Samuele6vectorINtB2_6VectorpE3lenB4_
FN:9,_RNvMNtCsegUw7dZuH12_7Samuele6vectorINtB2_6VectorpE3newB4_
FN:17,_RNvMNtCsegUw7dZuH12_7Samuele6vectorINtB2_6VectorpE4iterB4_
FN:21,_RNvMNtCsegUw7dZuH12_7Samuele6vectorINtB2_6VectorpE8iter_mutB4_
FN:39,_RNvXININtCsegUw7dZuH12_7Samuele6vectors0_0pERINtB5_6VectorpENtNtNtNtCs1TsYZUjtjaA_4core4iter6traits7collect12IntoIterator9into_iterB7_
FN:48,_RNvXININtCsegUw7dZuH12_7Samuele6vectors1_0pEQINtB5_6VectorpENtNtNtNtCs1TsYZUjtjaA_4core4iter6traits7collect12IntoIterator9into_iterB7_
FN:56,_RNvXININtCsegUw7dZuH12_7Samuele6vectors2_0pEINtB5_6VectorpEINtNtNtCs1TsYZUjtjaA_4core3ops5index5IndexjE5indexB7_
FN:72,_RNvXININtCsegUw7dZuH12_7Samuele6vectors3_0pEINtB5_6VectorpENtNtCs1TsYZUjtjaA_4core3fmt7Display3fmtB7_
FN:30,_RNvXININtCsegUw7dZuH12_7Samuele6vectors_0pEINtB5_6VectorpENtNtNtNtCs1TsYZUjtjaA_4core4iter6traits7collect12IntoIterator9into_iterB7_
FNDA:0,_RNvMNtCsegUw7dZuH12_7Samuele6vectorINtB2_6VectorpE3lenB4_
FNDA:0,_RNvMNtCsegUw7dZuH12_7Samuele6vectorINtB2_6VectorpE3newB4_
FNDA:0,_RNvMNtCsegUw7dZuH12_7Samuele6vectorINtB2_6VectorpE4iterB4_
FNDA:0,_RNvMNtCsegUw7dZuH12_7Samuele6vectorINtB2_6VectorpE8iter_mutB4_
FNDA:0,_RNvXININtCsegUw7dZuH12_7Samuele6vectors0_0pERINtB5_6VectorpENtNtNtNtCs1TsYZUjtjaA_4core4iter6traits7collect12IntoIterator9into_iterB7_
FNDA:0,_RNvXININtCsegUw7dZuH12_7Samuele6vectors1_0pEQINtB5_6VectorpENtNtNtNtCs1TsYZUjtjaA_4core4iter6traits7collect12IntoIterator9into_iterB7_
FNDA:0,_RNvXININtCsegUw7dZuH12_7Samuele6vectors2_0pEINtB5_6VectorpEINtNtNtCs1TsYZUjtjaA_4core3ops5index5IndexjE5indexB7_
FNDA:0,_RNvXININtCsegUw7dZuH12_7Samuele6vectors3_0pEINtB5_6VectorpENtNtCs1TsYZUjtjaA_4core3fmt7Display3fmtB7_
FNDA:0,_RNvXININtCsegUw7dZuH12_7Samuele6vectors_0pEINtB5_6VectorpENtNtNtNtCs1TsYZUjtjaA_4core4iter6traits7collect12IntoIterator9into_iterB7_
FNF:9
FNH:0
DA:9,0
DA:10,0
DA:11,0
DA:13,0
DA:14,0
DA:15,0
DA:17,0
DA:18,0
DA:19,0
DA:21,0
DA:22,0
DA:23,0
DA:30,0
DA:31,0
DA:32,0
DA:39,0
DA:40,0
DA:41,0
DA:48,0
DA:49,0
DA:50,0
DA:56,0
DA:57,0
DA:58,0
DA:60,0
DA:63,0
DA:64,0
DA:65,0
DA:72,0
DA:73,0
DA:74,0
DA:75,0
DA:76,0
DA:77,0
DA:78,0
DA:80,0
DA:81,0
BRF:0
BRH:0
LF:37
LH:0
end_of_record